
========================================================================

** ELF Header Information

    File Name: build/output/Test.elf

    Machine class: ELFCLASS32 (32-bit)
    Data encoding: ELFDATA2LSB (Little endian)
    Header version: EV_CURRENT (Current version)
    Operating System ABI: none
    ABI Version: 0
    File Type: ET_EXEC (Executable) (2)
    Machine: EM_ARM (ARM)

    Image Entry point: 0x08000155
    Flags: EF_ARM_HASENTRY + EF_ARM_ABI_FLOAT_SOFT (0x05000202)

    ARM ELF revision: 5 (ABI version 2)

    Conforms to Soft float procedure-call standard

    Built with
    Component: Arm Compiler for Embedded 6.21 Tool: armasm [5ec1f200]
    Component: Arm Compiler for Embedded 6.21 Tool: armlink [5ec1fa00]

    Header size: 52 bytes (0x34)
    Program header entry size: 32 bytes (0x20)
    Section header entry size: 40 bytes (0x28)

    Program header entries: 1
    Section header entries: 15

    Program header offset: 122492 (0x0001de7c)
    Section header offset: 122524 (0x0001de9c)

    Section header string table index: 14

========================================================================

** Program header #0 (PT_LOAD) [PF_X + PF_W + PF_R + PF_ARM_ENTRY]
    Size : 13456 bytes (9272 bytes in file)
    Virtual address: 0x08000000 (Alignment 8)


========================================================================

** Section #1 'ER_IROM1' (SHT_PROGBITS) [SHF_ALLOC + SHF_EXECINSTR]
    Size   : 9200 bytes (alignment 4)
    Address: 0x08000000

    $d.realdata
    RESET
    __Vectors
        0x08000000:    200010a0    ...     DCD    536875168
        0x08000004:    08000259    Y...    DCD    134218329
        0x08000008:    08000747    G...    DCD    134219591
        0x0800000c:    08000743    C...    DCD    134219587
        0x08000010:    00000000    ....    DCD    0
        0x08000014:    00000000    ....    DCD    0
        0x08000018:    00000000    ....    DCD    0
        0x0800001c:    00000000    ....    DCD    0
        0x08000020:    00000000    ....    DCD    0
        0x08000024:    00000000    ....    DCD    0
        0x08000028:    00000000    ....    DCD    0
        0x0800002c:    08000bb5    ....    DCD    134220725
        0x08000030:    00000000    ....    DCD    0
        0x08000034:    00000000    ....    DCD    0
        0x08000038:    08000749    I...    DCD    134219593
        0x0800003c:    08000bb7    ....    DCD    134220727
        0x08000040:    0800026b    k...    DCD    134218347
        0x08000044:    0800026b    k...    DCD    134218347
        0x08000048:    0800026b    k...    DCD    134218347
        0x0800004c:    0800074b    K...    DCD    134219595
        0x08000050:    0800026b    k...    DCD    134218347
        0x08000054:    0800026b    k...    DCD    134218347
        0x08000058:    0800073b    ;...    DCD    134219579
        0x0800005c:    0800026b    k...    DCD    134218347
        0x08000060:    0800073f    ?...    DCD    134219583
        0x08000064:    0800026b    k...    DCD    134218347
        0x08000068:    0800026b    k...    DCD    134218347
        0x0800006c:    08000733    3...    DCD    134219571
        0x08000070:    0800026b    k...    DCD    134218347
        0x08000074:    08000735    5...    DCD    134219573
        0x08000078:    0800026b    k...    DCD    134218347
        0x0800007c:    08000737    7...    DCD    134219575
        0x08000080:    0800026b    k...    DCD    134218347
        0x08000084:    08000739    9...    DCD    134219577
        0x08000088:    0800026b    k...    DCD    134218347
        0x0800008c:    0800026b    k...    DCD    134218347
        0x08000090:    0800026b    k...    DCD    134218347
        0x08000094:    08000c5d    ]...    DCD    134220893
        0x08000098:    08000c8d    ....    DCD    134220941
        0x0800009c:    0800026b    k...    DCD    134218347
        0x080000a0:    0800026b    k...    DCD    134218347
        0x080000a4:    08000c8f    ....    DCD    134220943
        0x080000a8:    0800026b    k...    DCD    134218347
        0x080000ac:    0800026b    k...    DCD    134218347
        0x080000b0:    08000c95    ....    DCD    134220949
        0x080000b4:    08000c91    ....    DCD    134220945
        0x080000b8:    08000c93    ....    DCD    134220947
        0x080000bc:    0800026b    k...    DCD    134218347
        0x080000c0:    0800026b    k...    DCD    134218347
        0x080000c4:    0800026b    k...    DCD    134218347
        0x080000c8:    0800026b    k...    DCD    134218347
        0x080000cc:    0800026b    k...    DCD    134218347
        0x080000d0:    0800026b    k...    DCD    134218347
        0x080000d4:    0800026b    k...    DCD    134218347
        0x080000d8:    00000000    ....    DCD    0
        0x080000dc:    0800026b    k...    DCD    134218347
        0x080000e0:    0800026b    k...    DCD    134218347
        0x080000e4:    0800026b    k...    DCD    134218347
        0x080000e8:    0800026b    k...    DCD    134218347
        0x080000ec:    08000741    A...    DCD    134219585
        0x080000f0:    00000000    ....    DCD    0
        0x080000f4:    00000000    ....    DCD    0
        0x080000f8:    00000000    ....    DCD    0
        0x080000fc:    0800073d    =...    DCD    134219581
        0x08000100:    00000000    ....    DCD    0
        0x08000104:    00000000    ....    DCD    0
        0x08000108:    00000000    ....    DCD    0
        0x0800010c:    00000000    ....    DCD    0
        0x08000110:    00000000    ....    DCD    0
        0x08000114:    00000000    ....    DCD    0
        0x08000118:    00000000    ....    DCD    0
        0x0800011c:    0800026b    k...    DCD    134218347
        0x08000120:    08000731    1...    DCD    134219569
        0x08000124:    0800026b    k...    DCD    134218347
        0x08000128:    0800026b    k...    DCD    134218347
        0x0800012c:    0800026b    k...    DCD    134218347
        0x08000130:    0800026b    k...    DCD    134218347
        0x08000134:    0800026b    k...    DCD    134218347
        0x08000138:    0800026b    k...    DCD    134218347
        0x0800013c:    0800026b    k...    DCD    134218347
        0x08000140:    0800026b    k...    DCD    134218347
        0x08000144:    0800026b    k...    DCD    134218347
        0x08000148:    0800026b    k...    DCD    134218347
        0x0800014c:    0800026b    k...    DCD    134218347
        0x08000150:    0800026b    k...    DCD    134218347
    $t
    !!!main
    __Vectors_End
    __main
        0x08000154:    f000f802    ....    BL       __scatterload ; 0x800015c
        0x08000158:    f000f852    ..R.    BL       __rt_entry ; 0x8000200
    !!!scatter
    __scatterload
    __scatterload_rt2
    __scatterload_rt2_thumb_only
        0x0800015c:    a012        ..      ADR      r0,{pc}+0x4c ; 0x80001a8
        0x0800015e:    c830        0.      LDM      r0!,{r4,r5}
        0x08000160:    3808        .8      SUBS     r0,r0,#8
        0x08000162:    1824        $.      ADDS     r4,r4,r0
        0x08000164:    182d        -.      ADDS     r5,r5,r0
    __scatterload_loop
        0x08000166:    42ac        .B      CMP      r4,r5
        0x08000168:    d101        ..      BNE      0x800016e ; __scatterload_loop + 8
        0x0800016a:    f000f849    ..I.    BL       __rt_entry ; 0x8000200
        0x0800016e:    cc0f        ..      LDM      r4!,{r0-r3}
        0x08000170:    46a2        .F      MOV      r10,r4
        0x08000172:    46ab        .F      MOV      r11,r5
        0x08000174:    a70c        ..      ADR      r7,{pc}+0x34 ; 0x80001a8
        0x08000176:    cf30        0.      LDM      r7!,{r4,r5}
        0x08000178:    1b2d        -.      SUBS     r5,r5,r4
        0x0800017a:    3f08        .?      SUBS     r7,r7,#8
        0x0800017c:    193f        ?.      ADDS     r7,r7,r4
        0x0800017e:    427c        |B      RSBS     r4,r7,#0
        0x08000180:    1e7f        ..      SUBS     r7,r7,#1
        0x08000182:    4454        TD      ADD      r4,r4,r10
        0x08000184:    092d        -.      LSRS     r5,r5,#4
        0x08000186:    2604        .&      MOVS     r6,#4
        0x08000188:    41f4        .A      RORS     r4,r4,r6
        0x0800018a:    1e64        d.      SUBS     r4,r4,#1
        0x0800018c:    42ac        .B      CMP      r4,r5
        0x0800018e:    d301        ..      BCC      0x8000194 ; __scatterload_loop + 46
        0x08000190:    f000f836    ..6.    BL       __rt_entry ; 0x8000200
        0x08000194:    2601        .&      MOVS     r6,#1
        0x08000196:    4233        3B      TST      r3,r6
        0x08000198:    d000        ..      BEQ      0x800019c ; __scatterload_loop + 54
        0x0800019a:    1afb        ..      SUBS     r3,r7,r3
        0x0800019c:    4333        3C      ORRS     r3,r3,r6
        0x0800019e:    4798        .G      BLX      r3
        0x080001a0:    4654        TF      MOV      r4,r10
        0x080001a2:    465d        ]F      MOV      r5,r11
        0x080001a4:    e7df        ..      B        __scatterload_loop ; 0x8000166
    $d
        0x080001a6:    0000        ..      DCW    0
        0x080001a8:    00002224    $"..    DCD    8740
        0x080001ac:    00002244    D"..    DCD    8772
    $t
    !!handler_copy
    __scatterload_copy
        0x080001b0:    3a10        .:      SUBS     r2,r2,#0x10
        0x080001b2:    d302        ..      BCC      0x80001ba ; __scatterload_copy + 10
        0x080001b4:    c878        x.      LDM      r0!,{r3-r6}
        0x080001b6:    c178        x.      STM      r1!,{r3-r6}
        0x080001b8:    d8fa        ..      BHI      __scatterload_copy ; 0x80001b0
        0x080001ba:    0752        R.      LSLS     r2,r2,#29
        0x080001bc:    d301        ..      BCC      0x80001c2 ; __scatterload_copy + 18
        0x080001be:    c830        0.      LDM      r0!,{r4,r5}
        0x080001c0:    c130        0.      STM      r1!,{r4,r5}
        0x080001c2:    d501        ..      BPL      0x80001c8 ; __scatterload_copy + 24
        0x080001c4:    6804        .h      LDR      r4,[r0,#0]
        0x080001c6:    600c        .`      STR      r4,[r1,#0]
        0x080001c8:    4770        pG      BX       lr
        0x080001ca:    0000        ..      MOVS     r0,r0
    !!handler_null
    __scatterload_null
        0x080001cc:    4770        pG      BX       lr
        0x080001ce:    0000        ..      MOVS     r0,r0
    !!handler_zi
    __scatterload_zeroinit
        0x080001d0:    2300        .#      MOVS     r3,#0
        0x080001d2:    2400        .$      MOVS     r4,#0
        0x080001d4:    2500        .%      MOVS     r5,#0
        0x080001d6:    2600        .&      MOVS     r6,#0
        0x080001d8:    3a10        .:      SUBS     r2,r2,#0x10
        0x080001da:    d301        ..      BCC      0x80001e0 ; __scatterload_zeroinit + 16
        0x080001dc:    c178        x.      STM      r1!,{r3-r6}
        0x080001de:    d8fb        ..      BHI      0x80001d8 ; __scatterload_zeroinit + 8
        0x080001e0:    0752        R.      LSLS     r2,r2,#29
        0x080001e2:    d300        ..      BCC      0x80001e6 ; __scatterload_zeroinit + 22
        0x080001e4:    c130        0.      STM      r1!,{r4,r5}
        0x080001e6:    d500        ..      BPL      0x80001ea ; __scatterload_zeroinit + 26
        0x080001e8:    600b        .`      STR      r3,[r1,#0]
        0x080001ea:    4770        pG      BX       lr
    .ARM.Collect$$libinit$$00000000
    __rt_lib_init
        0x080001ec:    b51f        ..      PUSH     {r0-r4,lr}
    .ARM.Collect$$libinit$$00000002
    .ARM.Collect$$libinit$$00000004
    .ARM.Collect$$libinit$$00000006
    .ARM.Collect$$libinit$$00000007
    __rt_lib_init_fp_1
    __rt_lib_init_heap_2
    __rt_lib_init_preinit_1
    __rt_lib_init_relocate_pie_1
        0x080001ee:    9800        ..      LDR      r0,[sp,#0]
        0x080001f0:    9901        ..      LDR      r1,[sp,#4]
        0x080001f2:    f000f9ca    ....    BL       _init_alloc ; 0x800058a
    .ARM.Collect$$libinit$$0000000C
    .ARM.Collect$$libinit$$0000000E
    .ARM.Collect$$libinit$$00000010
    .ARM.Collect$$libinit$$00000013
    .ARM.Collect$$libinit$$00000015
    .ARM.Collect$$libinit$$00000017
    .ARM.Collect$$libinit$$00000019
    .ARM.Collect$$libinit$$0000001B
    .ARM.Collect$$libinit$$0000001D
    .ARM.Collect$$libinit$$0000001F
    .ARM.Collect$$libinit$$00000021
    .ARM.Collect$$libinit$$00000023
    .ARM.Collect$$libinit$$00000025
    .ARM.Collect$$libinit$$00000027
    .ARM.Collect$$libinit$$0000002E
    .ARM.Collect$$libinit$$00000030
    .ARM.Collect$$libinit$$00000032
    .ARM.Collect$$libinit$$00000033
    __rt_lib_init_alloca_1
    __rt_lib_init_argv_1
    __rt_lib_init_atexit_1
    __rt_lib_init_clock_1
    __rt_lib_init_cpp_2
    __rt_lib_init_exceptions_1
    __rt_lib_init_fp_trap_1
    __rt_lib_init_getenv_1
    __rt_lib_init_heap_1
    __rt_lib_init_lc_collate_1
    __rt_lib_init_lc_ctype_1
    __rt_lib_init_lc_monetary_1
    __rt_lib_init_lc_numeric_1
    __rt_lib_init_lc_time_1
    __rt_lib_init_rand_1
    __rt_lib_init_signal_1
    __rt_lib_init_stdio_1
    __rt_lib_init_user_alloc_1
        0x080001f6:    f000f995    ....    BL       __cpp_initialize__aeabi_ ; 0x8000524
    .ARM.Collect$$libinit$$00000034
    .ARM.Collect$$libinit$$00000035
    __rt_lib_init_cpp_1
    __rt_lib_init_return
        0x080001fa:    bd1f        ..      POP      {r0-r4,pc}
    .ARM.Collect$$libshutdown$$00000000
    __rt_lib_shutdown
        0x080001fc:    b510        ..      PUSH     {r4,lr}
    .ARM.Collect$$libshutdown$$00000002
    .ARM.Collect$$libshutdown$$00000004
    .ARM.Collect$$libshutdown$$00000007
    .ARM.Collect$$libshutdown$$0000000A
    .ARM.Collect$$libshutdown$$0000000C
    .ARM.Collect$$libshutdown$$0000000F
    .ARM.Collect$$libshutdown$$00000010
    __rt_lib_shutdown_cpp_1
    __rt_lib_shutdown_fp_trap_1
    __rt_lib_shutdown_heap_1
    __rt_lib_shutdown_return
    __rt_lib_shutdown_signal_1
    __rt_lib_shutdown_stdio_1
    __rt_lib_shutdown_user_alloc_1
        0x080001fe:    bd10        ..      POP      {r4,pc}
    .ARM.Collect$$rtentry$$00000000
    .ARM.Collect$$rtentry$$00000002
    .ARM.Collect$$rtentry$$00000004
    __rt_entry
    __rt_entry_presh_1
    __rt_entry_sh
        0x08000200:    f000fa1b    ....    BL       __semihosting_library_function ; 0x800063a
        0x08000204:    4611        .F      MOV      r1,r2
    .ARM.Collect$$rtentry$$00000009
    .ARM.Collect$$rtentry$$0000000A
    __rt_entry_li
    __rt_entry_postsh_1
        0x08000206:    f7fffff1    ....    BL       __rt_lib_init ; 0x80001ec
    .ARM.Collect$$rtentry$$0000000C
    .ARM.Collect$$rtentry$$0000000D
    __rt_entry_main
    __rt_entry_postli_1
        0x0800020a:    f001fd4a    ..J.    BL       main ; 0x8001ca2
        0x0800020e:    f000fa33    ..3.    BL       exit ; 0x8000678
    .ARM.Collect$$rtexit$$00000000
    __rt_exit
        0x08000212:    b403        ..      PUSH     {r0,r1}
    .ARM.Collect$$rtexit$$00000002
    .ARM.Collect$$rtexit$$00000003
    __rt_exit_ls
    __rt_exit_prels_1
        0x08000214:    f7fffff2    ....    BL       __rt_lib_shutdown ; 0x80001fc
    .ARM.Collect$$rtexit$$00000004
    __rt_exit_exit
        0x08000218:    bc03        ..      POP      {r0,r1}
        0x0800021a:    f000fa63    ..c.    BL       _sys_exit ; 0x80006e4
        0x0800021e:    0000        ..      MOVS     r0,r0
    .emb_text
    __aeabi_memcpy4
    __aeabi_memcpy8
        0x08000220:    b570        p.      PUSH     {r4-r6,lr}
        0x08000222:    4605        .F      MOV      r5,r0
        0x08000224:    460c        .F      MOV      r4,r1
        0x08000226:    4616        .F      MOV      r6,r2
        0x08000228:    e002        ..      B        0x8000230 ; __aeabi_memcpy4 + 16
        0x0800022a:    cc0f        ..      LDM      r4!,{r0-r3}
        0x0800022c:    c50f        ..      STM      r5!,{r0-r3}
        0x0800022e:    3e10        .>      SUBS     r6,r6,#0x10
        0x08000230:    2e10        ..      CMP      r6,#0x10
        0x08000232:    d2fa        ..      BCS      0x800022a ; __aeabi_memcpy4 + 10
        0x08000234:    2e08        ..      CMP      r6,#8
        0x08000236:    d302        ..      BCC      0x800023e ; __aeabi_memcpy4 + 30
        0x08000238:    cc03        ..      LDM      r4!,{r0,r1}
        0x0800023a:    c503        ..      STM      r5!,{r0,r1}
        0x0800023c:    3e08        .>      SUBS     r6,r6,#8
        0x0800023e:    2e04        ..      CMP      r6,#4
        0x08000240:    d307        ..      BCC      0x8000252 ; __aeabi_memcpy4 + 50
        0x08000242:    cc01        ..      LDM      r4!,{r0}
        0x08000244:    c501        ..      STM      r5!,{r0}
        0x08000246:    1f36        6.      SUBS     r6,r6,#4
        0x08000248:    e003        ..      B        0x8000252 ; __aeabi_memcpy4 + 50
        0x0800024a:    7821        !x      LDRB     r1,[r4,#0]
        0x0800024c:    7029        )p      STRB     r1,[r5,#0]
        0x0800024e:    1c64        d.      ADDS     r4,r4,#1
        0x08000250:    1c6d        m.      ADDS     r5,r5,#1
        0x08000252:    1e76        v.      SUBS     r6,r6,#1
        0x08000254:    d2f9        ..      BCS      0x800024a ; __aeabi_memcpy4 + 42
        0x08000256:    bd70        p.      POP      {r4-r6,pc}
    .text
    Reset_Handler
        0x08000258:    4807        .H      LDR      r0,[pc,#28] ; [0x8000278] = 0x8000bc1
        0x0800025a:    4780        .G      BLX      r0
        0x0800025c:    4807        .H      LDR      r0,[pc,#28] ; [0x800027c] = 0x8000155
        0x0800025e:    4700        .G      BX       r0
        0x08000260:    e7fe        ..      B        0x8000260 ; Reset_Handler + 8
        0x08000262:    e7fe        ..      B        0x8000262 ; Reset_Handler + 10
        0x08000264:    e7fe        ..      B        0x8000264 ; Reset_Handler + 12
        0x08000266:    e7fe        ..      B        0x8000266 ; Reset_Handler + 14
        0x08000268:    e7fe        ..      B        0x8000268 ; Reset_Handler + 16
    ADC_IRQHandler
    CAU_IRQHandler
    CMP1_IRQHandler
    DAC_IRQHandler
    DMAMUX_IRQHandler
    DMA_Channel1_IRQHandler
    DMA_Channel3_IRQHandler
    DMA_Channel5_IRQHandler
    EXTI1_IRQHandler
    EXTI3_IRQHandler
    EXTI4_IRQHandler
    FMC_IRQHandler
    I2C0_ER_IRQHandler
    I2C0_EV_IRQHandler
    I2C0_WKUP_IRQHandler
    I2C1_ER_IRQHandler
    I2C1_EV_IRQHandler
    I2C1_WKUP_IRQHandler
    I2C2_ER_IRQHandler
    I2C2_EV_IRQHandler
    I2C2_WKUP_IRQHandler
    LPTIMER_IRQHandler
    LPUART_IRQHandler
    LPUART_WKUP_IRQHandler
    LVD_IRQHandler
    RCU_CTC_IRQHandler
    RTC_Alarm_IRQHandler
    SLCD_IRQHandler
    SPI0_IRQHandler
    SPI1_IRQHandler
    TAMPER_STAMP_IRQHandler
    TIMER11_IRQHandler
    TIMER6_IRQHandler
    TIMER8_IRQHandler
    TRNG_IRQHandler
    USART0_IRQHandler
    USART0_WKUP_IRQHandler
    USART1_WKUP_IRQHandler
    USBD_HP_IRQHandler
    USBD_LP_IRQHandler
    USBD_WKUP_IRQHandler
    WWDGT_IRQHandler
        0x0800026a:    e7fe        ..      B        ADC_IRQHandler ; 0x800026a
    __user_initial_stackheap
        0x0800026c:    4804        .H      LDR      r0,[pc,#16] ; [0x8000280] = 0x200008a0
        0x0800026e:    4905        .I      LDR      r1,[pc,#20] ; [0x8000284] = 0x200010a0
        0x08000270:    4a05        .J      LDR      r2,[pc,#20] ; [0x8000288] = 0x20000ca0
        0x08000272:    4b06        .K      LDR      r3,[pc,#24] ; [0x800028c] = 0x20000ca0
        0x08000274:    4770        pG      BX       lr
    $d
        0x08000276:    0000        ..      DCW    0
        0x08000278:    08000bc1    ....    DCD    134220737
        0x0800027c:    08000155    U...    DCD    134218069
        0x08000280:    200008a0    ...     DCD    536873120
        0x08000284:    200010a0    ...     DCD    536875168
        0x08000288:    20000ca0    ...     DCD    536874144
        0x0800028c:    20000ca0    ...     DCD    536874144
    $t
    .text
    malloc
        0x08000290:    b570        p.      PUSH     {r4-r6,lr}
        0x08000292:    4606        .F      MOV      r6,r0
        0x08000294:    f000f95c    ..\.    BL       __rt_heap_descriptor ; 0x8000550
        0x08000298:    6805        .h      LDR      r5,[r0,#0]
        0x0800029a:    4630        0F      MOV      r0,r6
        0x0800029c:    300b        .0      ADDS     r0,r0,#0xb
        0x0800029e:    08c4        ..      LSRS     r4,r0,#3
        0x080002a0:    00e4        ..      LSLS     r4,r4,#3
        0x080002a2:    42b4        .B      CMP      r4,r6
        0x080002a4:    d801        ..      BHI      0x80002aa ; malloc + 26
        0x080002a6:    2000        .       MOVS     r0,#0
        0x080002a8:    bd70        p.      POP      {r4-r6,pc}
        0x080002aa:    6868        hh      LDR      r0,[r5,#4]
        0x080002ac:    462a        *F      MOV      r2,r5
        0x080002ae:    2800        .(      CMP      r0,#0
        0x080002b0:    d018        ..      BEQ      0x80002e4 ; malloc + 84
        0x080002b2:    6801        .h      LDR      r1,[r0,#0]
        0x080002b4:    42a1        .B      CMP      r1,r4
        0x080002b6:    d311        ..      BCC      0x80002dc ; malloc + 76
        0x080002b8:    460b        .F      MOV      r3,r1
        0x080002ba:    4621        !F      MOV      r1,r4
        0x080002bc:    3108        .1      ADDS     r1,r1,#8
        0x080002be:    428b        .B      CMP      r3,r1
        0x080002c0:    d308        ..      BCC      0x80002d4 ; malloc + 68
        0x080002c2:    6843        Ch      LDR      r3,[r0,#4]
        0x080002c4:    1901        ..      ADDS     r1,r0,r4
        0x080002c6:    604b        K`      STR      r3,[r1,#4]
        0x080002c8:    6803        .h      LDR      r3,[r0,#0]
        0x080002ca:    1b1b        ..      SUBS     r3,r3,r4
        0x080002cc:    600b        .`      STR      r3,[r1,#0]
        0x080002ce:    6051        Q`      STR      r1,[r2,#4]
        0x080002d0:    6004        .`      STR      r4,[r0,#0]
        0x080002d2:    e001        ..      B        0x80002d8 ; malloc + 72
        0x080002d4:    6841        Ah      LDR      r1,[r0,#4]
        0x080002d6:    6051        Q`      STR      r1,[r2,#4]
        0x080002d8:    1d00        ..      ADDS     r0,r0,#4
        0x080002da:    bd70        p.      POP      {r4-r6,pc}
        0x080002dc:    4602        .F      MOV      r2,r0
        0x080002de:    6840        @h      LDR      r0,[r0,#4]
        0x080002e0:    2800        .(      CMP      r0,#0
        0x080002e2:    d1e6        ..      BNE      0x80002b2 ; malloc + 34
        0x080002e4:    4621        !F      MOV      r1,r4
        0x080002e6:    4628        (F      MOV      r0,r5
        0x080002e8:    f000f93a    ..:.    BL       __Heap_Full ; 0x8000560
        0x080002ec:    2800        .(      CMP      r0,#0
        0x080002ee:    d1dc        ..      BNE      0x80002aa ; malloc + 26
        0x080002f0:    bd70        p.      POP      {r4-r6,pc}
    .text
    free
        0x080002f2:    b570        p.      PUSH     {r4-r6,lr}
        0x080002f4:    4604        .F      MOV      r4,r0
        0x080002f6:    1f05        ..      SUBS     r5,r0,#4
        0x080002f8:    f000f92a    ..*.    BL       __rt_heap_descriptor ; 0x8000550
        0x080002fc:    6800        .h      LDR      r0,[r0,#0]
        0x080002fe:    2c00        .,      CMP      r4,#0
        0x08000300:    d01a        ..      BEQ      0x8000338 ; free + 70
        0x08000302:    6844        Dh      LDR      r4,[r0,#4]
        0x08000304:    e001        ..      B        0x800030a ; free + 24
        0x08000306:    4620         F      MOV      r0,r4
        0x08000308:    6864        dh      LDR      r4,[r4,#4]
        0x0800030a:    2c00        .,      CMP      r4,#0
        0x0800030c:    d001        ..      BEQ      0x8000312 ; free + 32
        0x0800030e:    42ac        .B      CMP      r4,r5
        0x08000310:    d3f9        ..      BCC      0x8000306 ; free + 20
        0x08000312:    6801        .h      LDR      r1,[r0,#0]
        0x08000314:    180a        ..      ADDS     r2,r1,r0
        0x08000316:    42aa        .B      CMP      r2,r5
        0x08000318:    d104        ..      BNE      0x8000324 ; free + 50
        0x0800031a:    682a        *h      LDR      r2,[r5,#0]
        0x0800031c:    4605        .F      MOV      r5,r0
        0x0800031e:    1889        ..      ADDS     r1,r1,r2
        0x08000320:    6001        .`      STR      r1,[r0,#0]
        0x08000322:    e000        ..      B        0x8000326 ; free + 52
        0x08000324:    6045        E`      STR      r5,[r0,#4]
        0x08000326:    6828        (h      LDR      r0,[r5,#0]
        0x08000328:    1941        A.      ADDS     r1,r0,r5
        0x0800032a:    42a1        .B      CMP      r1,r4
        0x0800032c:    d105        ..      BNE      0x800033a ; free + 72
        0x0800032e:    6861        ah      LDR      r1,[r4,#4]
        0x08000330:    6069        i`      STR      r1,[r5,#4]
        0x08000332:    6821        !h      LDR      r1,[r4,#0]
        0x08000334:    1840        @.      ADDS     r0,r0,r1
        0x08000336:    6028        (`      STR      r0,[r5,#0]
        0x08000338:    bd70        p.      POP      {r4-r6,pc}
        0x0800033a:    606c        l`      STR      r4,[r5,#4]
        0x0800033c:    bd70        p.      POP      {r4-r6,pc}
        0x0800033e:    0000        ..      MOVS     r0,r0
    .text
    strcpy
        0x08000340:    4603        .F      MOV      r3,r0
        0x08000342:    b570        p.      PUSH     {r4-r6,lr}
        0x08000344:    4602        .F      MOV      r2,r0
        0x08000346:    430b        .C      ORRS     r3,r3,r1
        0x08000348:    079b        ..      LSLS     r3,r3,#30
        0x0800034a:    d10f        ..      BNE      0x800036c ; strcpy + 44
        0x0800034c:    4c0e        .L      LDR      r4,[pc,#56] ; [0x8000388] = 0x1010101
        0x0800034e:    01e6        ..      LSLS     r6,r4,#7
        0x08000350:    e000        ..      B        0x8000354 ; strcpy + 20
        0x08000352:    c208        ..      STM      r2!,{r3}
        0x08000354:    c908        ..      LDM      r1!,{r3}
        0x08000356:    1b1d        ..      SUBS     r5,r3,r4
        0x08000358:    439d        .C      BICS     r5,r5,r3
        0x0800035a:    4235        5B      TST      r5,r6
        0x0800035c:    d0f9        ..      BEQ      0x8000352 ; strcpy + 18
        0x0800035e:    b2d9        ..      UXTB     r1,r3
        0x08000360:    7011        .p      STRB     r1,[r2,#0]
        0x08000362:    1c52        R.      ADDS     r2,r2,#1
        0x08000364:    2900        .)      CMP      r1,#0
        0x08000366:    d00d        ..      BEQ      0x8000384 ; strcpy + 68
        0x08000368:    0a1b        ..      LSRS     r3,r3,#8
        0x0800036a:    e7f8        ..      B        0x800035e ; strcpy + 30
        0x0800036c:    780b        .x      LDRB     r3,[r1,#0]
        0x0800036e:    1c49        I.      ADDS     r1,r1,#1
        0x08000370:    7013        .p      STRB     r3,[r2,#0]
        0x08000372:    1c52        R.      ADDS     r2,r2,#1
        0x08000374:    2b00        .+      CMP      r3,#0
        0x08000376:    d005        ..      BEQ      0x8000384 ; strcpy + 68
        0x08000378:    780b        .x      LDRB     r3,[r1,#0]
        0x0800037a:    1c49        I.      ADDS     r1,r1,#1
        0x0800037c:    7013        .p      STRB     r3,[r2,#0]
        0x0800037e:    1c52        R.      ADDS     r2,r2,#1
        0x08000380:    2b00        .+      CMP      r3,#0
        0x08000382:    d1f3        ..      BNE      0x800036c ; strcpy + 44
        0x08000384:    bd70        p.      POP      {r4-r6,pc}
    $d
        0x08000386:    0000        ..      DCW    0
        0x08000388:    01010101    ....    DCD    16843009
    $t
    .text
    strlen
        0x0800038c:    b530        0.      PUSH     {r4,r5,lr}
        0x0800038e:    1c44        D.      ADDS     r4,r0,#1
        0x08000390:    e003        ..      B        0x800039a ; strlen + 14
        0x08000392:    7801        .x      LDRB     r1,[r0,#0]
        0x08000394:    1c40        @.      ADDS     r0,r0,#1
        0x08000396:    2900        .)      CMP      r1,#0
        0x08000398:    d00d        ..      BEQ      0x80003b6 ; strlen + 42
        0x0800039a:    0781        ..      LSLS     r1,r0,#30
        0x0800039c:    d1f9        ..      BNE      0x8000392 ; strlen + 6
        0x0800039e:    4b0b        .K      LDR      r3,[pc,#44] ; [0x80003cc] = 0x1010101
        0x080003a0:    01dd        ..      LSLS     r5,r3,#7
        0x080003a2:    c804        ..      LDM      r0!,{r2}
        0x080003a4:    1ad1        ..      SUBS     r1,r2,r3
        0x080003a6:    4391        .C      BICS     r1,r1,r2
        0x080003a8:    4029        )@      ANDS     r1,r1,r5
        0x080003aa:    d0fa        ..      BEQ      0x80003a2 ; strlen + 22
        0x080003ac:    1b00        ..      SUBS     r0,r0,r4
        0x080003ae:    060a        ..      LSLS     r2,r1,#24
        0x080003b0:    d003        ..      BEQ      0x80003ba ; strlen + 46
        0x080003b2:    1ec0        ..      SUBS     r0,r0,#3
        0x080003b4:    bd30        0.      POP      {r4,r5,pc}
        0x080003b6:    1b00        ..      SUBS     r0,r0,r4
        0x080003b8:    bd30        0.      POP      {r4,r5,pc}
        0x080003ba:    040a        ..      LSLS     r2,r1,#16
        0x080003bc:    d001        ..      BEQ      0x80003c2 ; strlen + 54
        0x080003be:    1e80        ..      SUBS     r0,r0,#2
        0x080003c0:    bd30        0.      POP      {r4,r5,pc}
        0x080003c2:    0209        ..      LSLS     r1,r1,#8
        0x080003c4:    d0fc        ..      BEQ      0x80003c0 ; strlen + 52
        0x080003c6:    1e40        @.      SUBS     r0,r0,#1
        0x080003c8:    bd30        0.      POP      {r4,r5,pc}
    $d
        0x080003ca:    0000        ..      DCW    0
        0x080003cc:    01010101    ....    DCD    16843009
    $t
    .text
    __aeabi_memcpy
    __rt_memcpy
        0x080003d0:    b5f8        ..      PUSH     {r3-r7,lr}
        0x080003d2:    2a04        .*      CMP      r2,#4
        0x080003d4:    d32c        ,.      BCC      0x8000430 ; __aeabi_memcpy + 96
        0x080003d6:    0783        ..      LSLS     r3,r0,#30
        0x080003d8:    d012        ..      BEQ      0x8000400 ; __aeabi_memcpy + 48
        0x080003da:    780b        .x      LDRB     r3,[r1,#0]
        0x080003dc:    1c49        I.      ADDS     r1,r1,#1
        0x080003de:    7003        .p      STRB     r3,[r0,#0]
        0x080003e0:    1c40        @.      ADDS     r0,r0,#1
        0x080003e2:    1e52        R.      SUBS     r2,r2,#1
        0x080003e4:    0783        ..      LSLS     r3,r0,#30
        0x080003e6:    d00b        ..      BEQ      0x8000400 ; __aeabi_memcpy + 48
        0x080003e8:    780b        .x      LDRB     r3,[r1,#0]
        0x080003ea:    1c49        I.      ADDS     r1,r1,#1
        0x080003ec:    7003        .p      STRB     r3,[r0,#0]
        0x080003ee:    1c40        @.      ADDS     r0,r0,#1
        0x080003f0:    1e52        R.      SUBS     r2,r2,#1
        0x080003f2:    0783        ..      LSLS     r3,r0,#30
        0x080003f4:    d004        ..      BEQ      0x8000400 ; __aeabi_memcpy + 48
        0x080003f6:    780b        .x      LDRB     r3,[r1,#0]
        0x080003f8:    1c49        I.      ADDS     r1,r1,#1
        0x080003fa:    7003        .p      STRB     r3,[r0,#0]
        0x080003fc:    1c40        @.      ADDS     r0,r0,#1
        0x080003fe:    1e52        R.      SUBS     r2,r2,#1
        0x08000400:    078b        ..      LSLS     r3,r1,#30
        0x08000402:    0f9b        ..      LSRS     r3,r3,#30
        0x08000404:    d005        ..      BEQ      0x8000412 ; __aeabi_memcpy + 66
        0x08000406:    1ac9        ..      SUBS     r1,r1,r3
        0x08000408:    00df        ..      LSLS     r7,r3,#3
        0x0800040a:    2320         #      MOVS     r3,#0x20
        0x0800040c:    1bde        ..      SUBS     r6,r3,r7
        0x0800040e:    c908        ..      LDM      r1!,{r3}
        0x08000410:    e00a        ..      B        0x8000428 ; __aeabi_memcpy + 88
        0x08000412:    f7ffff05    ....    BL       __aeabi_memcpy4 ; 0x8000220
        0x08000416:    bdf8        ..      POP      {r3-r7,pc}
        0x08000418:    461d        .F      MOV      r5,r3
        0x0800041a:    c908        ..      LDM      r1!,{r3}
        0x0800041c:    40fd        .@      LSRS     r5,r5,r7
        0x0800041e:    461c        .F      MOV      r4,r3
        0x08000420:    40b4        .@      LSLS     r4,r4,r6
        0x08000422:    432c        ,C      ORRS     r4,r4,r5
        0x08000424:    c010        ..      STM      r0!,{r4}
        0x08000426:    1f12        ..      SUBS     r2,r2,#4
        0x08000428:    2a04        .*      CMP      r2,#4
        0x0800042a:    d2f5        ..      BCS      0x8000418 ; __aeabi_memcpy + 72
        0x0800042c:    08f3        ..      LSRS     r3,r6,#3
        0x0800042e:    1ac9        ..      SUBS     r1,r1,r3
        0x08000430:    1e52        R.      SUBS     r2,r2,#1
        0x08000432:    d4f0        ..      BMI      0x8000416 ; __aeabi_memcpy + 70
        0x08000434:    780b        .x      LDRB     r3,[r1,#0]
        0x08000436:    1c49        I.      ADDS     r1,r1,#1
        0x08000438:    7003        .p      STRB     r3,[r0,#0]
        0x0800043a:    1c40        @.      ADDS     r0,r0,#1
        0x0800043c:    1e52        R.      SUBS     r2,r2,#1
        0x0800043e:    d4ea        ..      BMI      0x8000416 ; __aeabi_memcpy + 70
        0x08000440:    780b        .x      LDRB     r3,[r1,#0]
        0x08000442:    1c49        I.      ADDS     r1,r1,#1
        0x08000444:    7003        .p      STRB     r3,[r0,#0]
        0x08000446:    1c40        @.      ADDS     r0,r0,#1
        0x08000448:    2a01        .*      CMP      r2,#1
        0x0800044a:    d4e4        ..      BMI      0x8000416 ; __aeabi_memcpy + 70
        0x0800044c:    7809        .x      LDRB     r1,[r1,#0]
        0x0800044e:    7001        .p      STRB     r1,[r0,#0]
        0x08000450:    bdf8        ..      POP      {r3-r7,pc}
    .text
    _memset_w
        0x08000452:    e001        ..      B        0x8000458 ; _memset_w + 6
        0x08000454:    c004        ..      STM      r0!,{r2}
        0x08000456:    1f09        ..      SUBS     r1,r1,#4
        0x08000458:    2904        .)      CMP      r1,#4
        0x0800045a:    d2fb        ..      BCS      0x8000454 ; _memset_w + 2
        0x0800045c:    078b        ..      LSLS     r3,r1,#30
        0x0800045e:    d501        ..      BPL      0x8000464 ; _memset_w + 18
        0x08000460:    8002        ..      STRH     r2,[r0,#0]
        0x08000462:    1c80        ..      ADDS     r0,r0,#2
        0x08000464:    07c9        ..      LSLS     r1,r1,#31
        0x08000466:    d000        ..      BEQ      0x800046a ; _memset_w + 24
        0x08000468:    7002        .p      STRB     r2,[r0,#0]
        0x0800046a:    4770        pG      BX       lr
    _memset
        0x0800046c:    2900        .)      CMP      r1,#0
        0x0800046e:    d00b        ..      BEQ      0x8000488 ; _memset + 28
        0x08000470:    07c3        ..      LSLS     r3,r0,#31
        0x08000472:    d002        ..      BEQ      0x800047a ; _memset + 14
        0x08000474:    7002        .p      STRB     r2,[r0,#0]
        0x08000476:    1c40        @.      ADDS     r0,r0,#1
        0x08000478:    1e49        I.      SUBS     r1,r1,#1
        0x0800047a:    2902        .)      CMP      r1,#2
        0x0800047c:    d304        ..      BCC      0x8000488 ; _memset + 28
        0x0800047e:    0783        ..      LSLS     r3,r0,#30
        0x08000480:    d502        ..      BPL      0x8000488 ; _memset + 28
        0x08000482:    8002        ..      STRH     r2,[r0,#0]
        0x08000484:    1c80        ..      ADDS     r0,r0,#2
        0x08000486:    1e89        ..      SUBS     r1,r1,#2
        0x08000488:    e7e3        ..      B        _memset_w ; 0x8000452
    __aeabi_memclr
    __rt_memclr
        0x0800048a:    2200        ."      MOVS     r2,#0
        0x0800048c:    e7ee        ..      B        _memset ; 0x800046c
    __aeabi_memclr4
    __aeabi_memclr8
    __rt_memclr_w
        0x0800048e:    2200        ."      MOVS     r2,#0
        0x08000490:    e7df        ..      B        _memset_w ; 0x8000452
        0x08000492:    0000        ..      MOVS     r0,r0
    .text
    strcmp
        0x08000494:    4602        .F      MOV      r2,r0
        0x08000496:    b570        p.      PUSH     {r4-r6,lr}
        0x08000498:    430a        .C      ORRS     r2,r2,r1
        0x0800049a:    0792        ..      LSLS     r2,r2,#30
        0x0800049c:    d12a        *.      BNE      0x80004f4 ; strcmp + 96
        0x0800049e:    4d1e        .M      LDR      r5,[pc,#120] ; [0x8000518] = 0x1010101
        0x080004a0:    01ee        ..      LSLS     r6,r5,#7
        0x080004a2:    c804        ..      LDM      r0!,{r2}
        0x080004a4:    c908        ..      LDM      r1!,{r3}
        0x080004a6:    1b54        T.      SUBS     r4,r2,r5
        0x080004a8:    4394        .C      BICS     r4,r4,r2
        0x080004aa:    4034        4@      ANDS     r4,r4,r6
        0x080004ac:    d017        ..      BEQ      0x80004de ; strcmp + 74
        0x080004ae:    b2d0        ..      UXTB     r0,r2
        0x080004b0:    b2d9        ..      UXTB     r1,r3
        0x080004b2:    1a40        @.      SUBS     r0,r0,r1
        0x080004b4:    0621        !.      LSLS     r1,r4,#24
        0x080004b6:    4301        .C      ORRS     r1,r1,r0
        0x080004b8:    d110        ..      BNE      0x80004dc ; strcmp + 72
        0x080004ba:    b290        ..      UXTH     r0,r2
        0x080004bc:    b299        ..      UXTH     r1,r3
        0x080004be:    1a40        @.      SUBS     r0,r0,r1
        0x080004c0:    0421        !.      LSLS     r1,r4,#16
        0x080004c2:    4301        .C      ORRS     r1,r1,r0
        0x080004c4:    d10a        ..      BNE      0x80004dc ; strcmp + 72
        0x080004c6:    0210        ..      LSLS     r0,r2,#8
        0x080004c8:    0219        ..      LSLS     r1,r3,#8
        0x080004ca:    0a00        ..      LSRS     r0,r0,#8
        0x080004cc:    0a09        ..      LSRS     r1,r1,#8
        0x080004ce:    1a40        @.      SUBS     r0,r0,r1
        0x080004d0:    0221        !.      LSLS     r1,r4,#8
        0x080004d2:    4301        .C      ORRS     r1,r1,r0
        0x080004d4:    d102        ..      BNE      0x80004dc ; strcmp + 72
        0x080004d6:    0e10        ..      LSRS     r0,r2,#24
        0x080004d8:    0e19        ..      LSRS     r1,r3,#24
        0x080004da:    1a40        @.      SUBS     r0,r0,r1
        0x080004dc:    bd70        p.      POP      {r4-r6,pc}
        0x080004de:    429a        .B      CMP      r2,r3
        0x080004e0:    d0df        ..      BEQ      0x80004a2 ; strcmp + 14
        0x080004e2:    ba10        ..      REV      r0,r2
        0x080004e4:    ba19        ..      REV      r1,r3
        0x080004e6:    4288        .B      CMP      r0,r1
        0x080004e8:    d901        ..      BLS      0x80004ee ; strcmp + 90
        0x080004ea:    2001        .       MOVS     r0,#1
        0x080004ec:    bd70        p.      POP      {r4-r6,pc}
        0x080004ee:    2000        .       MOVS     r0,#0
        0x080004f0:    43c0        .C      MVNS     r0,r0
        0x080004f2:    bd70        p.      POP      {r4-r6,pc}
        0x080004f4:    7802        .x      LDRB     r2,[r0,#0]
        0x080004f6:    780b        .x      LDRB     r3,[r1,#0]
        0x080004f8:    1c40        @.      ADDS     r0,r0,#1
        0x080004fa:    1c49        I.      ADDS     r1,r1,#1
        0x080004fc:    2a00        .*      CMP      r2,#0
        0x080004fe:    d009        ..      BEQ      0x8000514 ; strcmp + 128
        0x08000500:    429a        .B      CMP      r2,r3
        0x08000502:    d107        ..      BNE      0x8000514 ; strcmp + 128
        0x08000504:    7802        .x      LDRB     r2,[r0,#0]
        0x08000506:    780b        .x      LDRB     r3,[r1,#0]
        0x08000508:    1c40        @.      ADDS     r0,r0,#1
        0x0800050a:    1c49        I.      ADDS     r1,r1,#1
        0x0800050c:    2a00        .*      CMP      r2,#0
        0x0800050e:    d001        ..      BEQ      0x8000514 ; strcmp + 128
        0x08000510:    429a        .B      CMP      r2,r3
        0x08000512:    d0ef        ..      BEQ      0x80004f4 ; strcmp + 96
        0x08000514:    1ad0        ..      SUBS     r0,r2,r3
        0x08000516:    bd70        p.      POP      {r4-r6,pc}
    $d
        0x08000518:    01010101    ....    DCD    16843009
    $t
    .text
    __use_two_region_memory
        0x0800051c:    4770        pG      BX       lr
    __rt_heap_escrow
        0x0800051e:    4770        pG      BX       lr
    __rt_heap_expand
        0x08000520:    4770        pG      BX       lr
        0x08000522:    0000        ..      MOVS     r0,r0
    .text
    __cpp_initialize__aeabi_
        0x08000524:    4808        .H      LDR      r0,[pc,#32] ; [0x8000548] = 0x1ec0
        0x08000526:    b57c        |.      PUSH     {r2-r6,lr}
        0x08000528:    4478        xD      ADD      r0,r0,pc
        0x0800052a:    9000        ..      STR      r0,[sp,#0]
        0x0800052c:    4807        .H      LDR      r0,[pc,#28] ; [0x800054c] = 0x1ebe
        0x0800052e:    4478        xD      ADD      r0,r0,pc
        0x08000530:    9c00        ..      LDR      r4,[sp,#0]
        0x08000532:    4605        .F      MOV      r5,r0
        0x08000534:    9001        ..      STR      r0,[sp,#4]
        0x08000536:    e004        ..      B        0x8000542 ; __cpp_initialize__aeabi_ + 30
        0x08000538:    4620         F      MOV      r0,r4
        0x0800053a:    6801        .h      LDR      r1,[r0,#0]
        0x0800053c:    1808        ..      ADDS     r0,r1,r0
        0x0800053e:    4780        .G      BLX      r0
        0x08000540:    1d24        $.      ADDS     r4,r4,#4
        0x08000542:    42ac        .B      CMP      r4,r5
        0x08000544:    d1f8        ..      BNE      0x8000538 ; __cpp_initialize__aeabi_ + 20
        0x08000546:    bd7c        |.      POP      {r2-r6,pc}
    $d
        0x08000548:    00001ec0    ....    DCD    7872
        0x0800054c:    00001ebe    ....    DCD    7870
    $t
    .text
    __rt_heap_descriptor
        0x08000550:    4800        .H      LDR      r0,[pc,#0] ; [0x8000554] = 0x20000050
        0x08000552:    4770        pG      BX       lr
    $d
        0x08000554:    20000050    P..     DCD    536870992
    $t
    .text
    __use_no_heap
        0x08000558:    4770        pG      BX       lr
    __heap$guard
        0x0800055a:    4770        pG      BX       lr
    .text
    _terminate_user_alloc
        0x0800055c:    4770        pG      BX       lr
    _init_user_alloc
        0x0800055e:    4770        pG      BX       lr
    __Heap_Full
        0x08000560:    b538        8.      PUSH     {r3-r5,lr}
        0x08000562:    4604        .F      MOV      r4,r0
        0x08000564:    460a        .F      MOV      r2,r1
        0x08000566:    2000        .       MOVS     r0,#0
        0x08000568:    4669        iF      MOV      r1,sp
        0x0800056a:    46c0        .F      MOV      r8,r8
        0x0800056c:    46c0        .F      MOV      r8,r8
        0x0800056e:    2800        .(      CMP      r0,#0
        0x08000570:    d005        ..      BEQ      0x800057e ; __Heap_Full + 30
        0x08000572:    4602        .F      MOV      r2,r0
        0x08000574:    4620         F      MOV      r0,r4
        0x08000576:    9900        ..      LDR      r1,[sp,#0]
        0x08000578:    f000f83e    ..>.    BL       __Heap_ProvideMemory ; 0x80005f8
        0x0800057c:    2001        .       MOVS     r0,#1
        0x0800057e:    bd38        8.      POP      {r3-r5,pc}
    __Heap_Broken
        0x08000580:    b510        ..      PUSH     {r4,lr}
        0x08000582:    2001        .       MOVS     r0,#1
        0x08000584:    f000f852    ..R.    BL       __rt_SIGRTMEM ; 0x800062c
        0x08000588:    bd10        ..      POP      {r4,pc}
    _init_alloc
        0x0800058a:    b5f8        ..      PUSH     {r3-r7,lr}
        0x0800058c:    46c0        .F      MOV      r8,r8
        0x0800058e:    46c0        .F      MOV      r8,r8
        0x08000590:    4605        .F      MOV      r5,r0
        0x08000592:    2000        .       MOVS     r0,#0
        0x08000594:    460c        .F      MOV      r4,r1
        0x08000596:    200c        .       MOVS     r0,#0xc
        0x08000598:    46c0        .F      MOV      r8,r8
        0x0800059a:    4606        .F      MOV      r6,r0
        0x0800059c:    19a8        ..      ADDS     r0,r5,r6
        0x0800059e:    42a0        .B      CMP      r0,r4
        0x080005a0:    d90d        ..      BLS      0x80005be ; _init_alloc + 52
        0x080005a2:    4632        2F      MOV      r2,r6
        0x080005a4:    4669        iF      MOV      r1,sp
        0x080005a6:    2000        .       MOVS     r0,#0
        0x080005a8:    46c0        .F      MOV      r8,r8
        0x080005aa:    46c0        .F      MOV      r8,r8
        0x080005ac:    0007        ..      MOVS     r7,r0
        0x080005ae:    d101        ..      BNE      0x80005b4 ; _init_alloc + 42
        0x080005b0:    f000f83c    ..<.    BL       __rt_SIGRTMEM ; 0x800062c
        0x080005b4:    9800        ..      LDR      r0,[sp,#0]
        0x080005b6:    42a0        .B      CMP      r0,r4
        0x080005b8:    d000        ..      BEQ      0x80005bc ; _init_alloc + 50
        0x080005ba:    4605        .F      MOV      r5,r0
        0x080005bc:    19c4        ..      ADDS     r4,r0,r7
        0x080005be:    f7ffffc7    ....    BL       __rt_heap_descriptor ; 0x8000550
        0x080005c2:    1df6        ..      ADDS     r6,r6,#7
        0x080005c4:    4607        .F      MOV      r7,r0
        0x080005c6:    6005        .`      STR      r5,[r0,#0]
        0x080005c8:    08f0        ..      LSRS     r0,r6,#3
        0x080005ca:    00c0        ..      LSLS     r0,r0,#3
        0x080005cc:    1946        F.      ADDS     r6,r0,r5
        0x080005ce:    4628        (F      MOV      r0,r5
        0x080005d0:    f000f808    ....    BL       __Heap_Initialize ; 0x80005e4
        0x080005d4:    42b4        .B      CMP      r4,r6
        0x080005d6:    d004        ..      BEQ      0x80005e2 ; _init_alloc + 88
        0x080005d8:    4631        1F      MOV      r1,r6
        0x080005da:    6838        8h      LDR      r0,[r7,#0]
        0x080005dc:    1ba2        ..      SUBS     r2,r4,r6
        0x080005de:    f000f80b    ....    BL       __Heap_ProvideMemory ; 0x80005f8
        0x080005e2:    bdf8        ..      POP      {r3-r7,pc}
    .text
    __Heap_Initialize
        0x080005e4:    2100        .!      MOVS     r1,#0
        0x080005e6:    6001        .`      STR      r1,[r0,#0]
        0x080005e8:    6041        A`      STR      r1,[r0,#4]
        0x080005ea:    4770        pG      BX       lr
    __Heap_DescSize
        0x080005ec:    200c        .       MOVS     r0,#0xc
        0x080005ee:    4770        pG      BX       lr
    .text
    __user_libspace
    __user_perproc_libspace
    __user_perthread_libspace
        0x080005f0:    4800        .H      LDR      r0,[pc,#0] ; [0x80005f4] = 0x20000048
        0x080005f2:    4770        pG      BX       lr
    $d
        0x080005f4:    20000048    H..     DCD    536870984
    $t
    .text
    .text
    __Heap_ProvideMemory
    _maybe_terminate_alloc
        0x080005f8:    b510        ..      PUSH     {r4,lr}
        0x080005fa:    4603        .F      MOV      r3,r0
        0x080005fc:    6840        @h      LDR      r0,[r0,#4]
        0x080005fe:    e001        ..      B        0x8000604 ; __Heap_ProvideMemory + 12
        0x08000600:    4603        .F      MOV      r3,r0
        0x08000602:    6840        @h      LDR      r0,[r0,#4]
        0x08000604:    2800        .(      CMP      r0,#0
        0x08000606:    d001        ..      BEQ      0x800060c ; __Heap_ProvideMemory + 20
        0x08000608:    4288        .B      CMP      r0,r1
        0x0800060a:    d3f9        ..      BCC      0x8000600 ; __Heap_ProvideMemory + 8
        0x0800060c:    6818        .h      LDR      r0,[r3,#0]
        0x0800060e:    18c3        ..      ADDS     r3,r0,r3
        0x08000610:    428b        .B      CMP      r3,r1
        0x08000612:    d006        ..      BEQ      0x8000622 ; __Heap_ProvideMemory + 42
        0x08000614:    1ccb        ..      ADDS     r3,r1,#3
        0x08000616:    08d8        ..      LSRS     r0,r3,#3
        0x08000618:    00c0        ..      LSLS     r0,r0,#3
        0x0800061a:    1d00        ..      ADDS     r0,r0,#4
        0x0800061c:    1a41        A.      SUBS     r1,r0,r1
        0x0800061e:    1a52        R.      SUBS     r2,r2,r1
        0x08000620:    4601        .F      MOV      r1,r0
        0x08000622:    1d08        ..      ADDS     r0,r1,#4
        0x08000624:    600a        .`      STR      r2,[r1,#0]
        0x08000626:    f7fffe64    ..d.    BL       free ; 0x80002f2
        0x0800062a:    bd10        ..      POP      {r4,pc}
    .text
    __rt_SIGRTMEM
        0x0800062c:    b510        ..      PUSH     {r4,lr}
        0x0800062e:    f000f831    ..1.    BL       __rt_SIGRTMEM_inner ; 0x8000694
        0x08000632:    f000f829    ..).    BL       __sig_exit ; 0x8000688
        0x08000636:    bd10        ..      POP      {r4,pc}
    .text
    __I$use$semihosting
    __use_no_semihosting_swi
        0x08000638:    4770        pG      BX       lr
    .text
    .text
    __semihosting_library_function
    __user_setup_stackheap
        0x0800063a:    4675        uF      MOV      r5,lr
        0x0800063c:    f7ffffd8    ....    BL       __user_libspace ; 0x80005f0
        0x08000640:    46ae        .F      MOV      lr,r5
        0x08000642:    0005        ..      MOVS     r5,r0
        0x08000644:    4669        iF      MOV      r1,sp
        0x08000646:    4653        SF      MOV      r3,r10
        0x08000648:    08c0        ..      LSRS     r0,r0,#3
        0x0800064a:    00c0        ..      LSLS     r0,r0,#3
        0x0800064c:    4685        .F      MOV      sp,r0
        0x0800064e:    b018        ..      ADD      sp,sp,#0x60
        0x08000650:    b520         .      PUSH     {r5,lr}
        0x08000652:    f7fffe0b    ....    BL       __user_initial_stackheap ; 0x800026c
        0x08000656:    bc60        `.      POP      {r5,r6}
        0x08000658:    46b6        .F      MOV      lr,r6
        0x0800065a:    2600        .&      MOVS     r6,#0
        0x0800065c:    2700        .'      MOVS     r7,#0
        0x0800065e:    c5c0        ..      STM      r5!,{r6,r7}
        0x08000660:    c5c0        ..      STM      r5!,{r6,r7}
        0x08000662:    c5c0        ..      STM      r5!,{r6,r7}
        0x08000664:    c5c0        ..      STM      r5!,{r6,r7}
        0x08000666:    c5c0        ..      STM      r5!,{r6,r7}
        0x08000668:    c5c0        ..      STM      r5!,{r6,r7}
        0x0800066a:    c5c0        ..      STM      r5!,{r6,r7}
        0x0800066c:    c5c0        ..      STM      r5!,{r6,r7}
        0x0800066e:    3d40        @=      SUBS     r5,r5,#0x40
        0x08000670:    0849        I.      LSRS     r1,r1,#1
        0x08000672:    0049        I.      LSLS     r1,r1,#1
        0x08000674:    468d        .F      MOV      sp,r1
        0x08000676:    4770        pG      BX       lr
    .text
    exit
        0x08000678:    b510        ..      PUSH     {r4,lr}
        0x0800067a:    4604        .F      MOV      r4,r0
        0x0800067c:    46c0        .F      MOV      r8,r8
        0x0800067e:    46c0        .F      MOV      r8,r8
        0x08000680:    4620         F      MOV      r0,r4
        0x08000682:    f7fffdc6    ....    BL       __rt_exit ; 0x8000212
        0x08000686:    bd10        ..      POP      {r4,pc}
    .text
    __sig_exit
        0x08000688:    b510        ..      PUSH     {r4,lr}
        0x0800068a:    2800        .(      CMP      r0,#0
        0x0800068c:    d001        ..      BEQ      0x8000692 ; __sig_exit + 10
        0x0800068e:    f000f829    ..).    BL       _sys_exit ; 0x80006e4
        0x08000692:    bd10        ..      POP      {r4,pc}
    .text
    __rt_SIGRTMEM_inner
        0x08000694:    b510        ..      PUSH     {r4,lr}
        0x08000696:    2801        .(      CMP      r0,#1
        0x08000698:    d005        ..      BEQ      0x80006a6 ; __rt_SIGRTMEM_inner + 18
        0x0800069a:    2100        .!      MOVS     r1,#0
        0x0800069c:    a003        ..      ADR      r0,{pc}+0x10 ; 0x80006ac
        0x0800069e:    f000f827    ..'.    BL       __default_signal_display ; 0x80006f0
        0x080006a2:    2001        .       MOVS     r0,#1
        0x080006a4:    bd10        ..      POP      {r4,pc}
        0x080006a6:    a109        ..      ADR      r1,{pc}+0x26 ; 0x80006cc
        0x080006a8:    e7f8        ..      B        0x800069c ; __rt_SIGRTMEM_inner + 8
    $d
        0x080006aa:    0000        ..      DCW    0
        0x080006ac:    52474953    SIGR    DCD    1380403539
        0x080006b0:    4d454d54    TMEM    DCD    1296387412
        0x080006b4:    754f203a    : Ou    DCD    1968119866
        0x080006b8:    666f2074    t of    DCD    1718558836
        0x080006bc:    61656820     hea    DCD    1634035744
        0x080006c0:    656d2070    p me    DCD    1701650544
        0x080006c4:    79726f6d    mory    DCD    2037542765
        0x080006c8:    00000000    ....    DCD    0
        0x080006cc:    6548203a    : He    DCD    1699225658
        0x080006d0:    6d207061    ap m    DCD    1830842465
        0x080006d4:    726f6d65    emor    DCD    1919905125
        0x080006d8:    6f632079    y co    DCD    1868767353
        0x080006dc:    70757272    rrup    DCD    1886745202
        0x080006e0:    00646574    ted.    DCD    6579572
    $t
    .text
    _sys_exit
        0x080006e4:    4901        .I      LDR      r1,[pc,#4] ; [0x80006ec] = 0x20026
        0x080006e6:    2018        .       MOVS     r0,#0x18
        0x080006e8:    beab        ..      BKPT     #0xab
        0x080006ea:    e7fe        ..      B        0x80006ea ; _sys_exit + 6
    $d
        0x080006ec:    00020026    &...    DCD    131110
    $t
    .text
    __default_signal_display
        0x080006f0:    b570        p.      PUSH     {r4-r6,lr}
        0x080006f2:    4605        .F      MOV      r5,r0
        0x080006f4:    460c        .F      MOV      r4,r1
        0x080006f6:    200a        .       MOVS     r0,#0xa
        0x080006f8:    e000        ..      B        0x80006fc ; __default_signal_display + 12
        0x080006fa:    1c6d        m.      ADDS     r5,r5,#1
        0x080006fc:    f000f812    ....    BL       _ttywrch ; 0x8000724
        0x08000700:    2d00        .-      CMP      r5,#0
        0x08000702:    d006        ..      BEQ      0x8000712 ; __default_signal_display + 34
        0x08000704:    7828        (x      LDRB     r0,[r5,#0]
        0x08000706:    2800        .(      CMP      r0,#0
        0x08000708:    d1f7        ..      BNE      0x80006fa ; __default_signal_display + 10
        0x0800070a:    e002        ..      B        0x8000712 ; __default_signal_display + 34
        0x0800070c:    1c64        d.      ADDS     r4,r4,#1
        0x0800070e:    f000f809    ....    BL       _ttywrch ; 0x8000724
        0x08000712:    2c00        .,      CMP      r4,#0
        0x08000714:    d002        ..      BEQ      0x800071c ; __default_signal_display + 44
        0x08000716:    7820         x      LDRB     r0,[r4,#0]
        0x08000718:    2800        .(      CMP      r0,#0
        0x0800071a:    d1f7        ..      BNE      0x800070c ; __default_signal_display + 28
        0x0800071c:    200a        .       MOVS     r0,#0xa
        0x0800071e:    f000f801    ....    BL       _ttywrch ; 0x8000724
        0x08000722:    bd70        p.      POP      {r4-r6,pc}
    .text
    _ttywrch
        0x08000724:    b508        ..      PUSH     {r3,lr}
        0x08000726:    4669        iF      MOV      r1,sp
        0x08000728:    7008        .p      STRB     r0,[r1,#0]
        0x0800072a:    2003        .       MOVS     r0,#3
        0x0800072c:    beab        ..      BKPT     #0xab
        0x0800072e:    bd08        ..      POP      {r3,pc}
    $t.19
    CMP0_IRQHandler
        0x08000730:    4770        pG      BX       lr
    DMA_Channel0_IRQHandler
        0x08000732:    4770        pG      BX       lr
    DMA_Channel2_IRQHandler
        0x08000734:    4770        pG      BX       lr
    DMA_Channel4_IRQHandler
        0x08000736:    4770        pG      BX       lr
    DMA_Channel6_IRQHandler
        0x08000738:    4770        pG      BX       lr
    EXTI0_IRQHandler
        0x0800073a:    4770        pG      BX       lr
    EXTI10_15_IRQHandler
        0x0800073c:    4770        pG      BX       lr
    EXTI2_IRQHandler
        0x0800073e:    4770        pG      BX       lr
    EXTI5_9_IRQHandler
        0x08000740:    4770        pG      BX       lr
    HardFault_Handler
        0x08000742:    e7ff        ..      B        0x8000744 ; HardFault_Handler + 2
        0x08000744:    e7fe        ..      B        0x8000744 ; HardFault_Handler + 2
    NMI_Handler
        0x08000746:    4770        pG      BX       lr
    PendSV_Handler
        0x08000748:    4770        pG      BX       lr
    RTC_WKUP_IRQHandler
        0x0800074a:    4770        pG      BX       lr
    SEGGER_RTT_Write
        0x0800074c:    b580        ..      PUSH     {r7,lr}
        0x0800074e:    b086        ..      SUB      sp,sp,#0x18
        0x08000750:    9005        ..      STR      r0,[sp,#0x14]
        0x08000752:    9104        ..      STR      r1,[sp,#0x10]
        0x08000754:    9203        ..      STR      r2,[sp,#0xc]
        0x08000756:    e7ff        ..      B        0x8000758 ; SEGGER_RTT_Write + 12
        0x08000758:    4838        8H      LDR      r0,[pc,#224] ; [0x800083c] = 0x200000a8
        0x0800075a:    9001        ..      STR      r0,[sp,#4]
        0x0800075c:    9801        ..      LDR      r0,[sp,#4]
        0x0800075e:    7800        .x      LDRB     r0,[r0,#0]
        0x08000760:    2853        S(      CMP      r0,#0x53
        0x08000762:    d003        ..      BEQ      0x800076c ; SEGGER_RTT_Write + 32
        0x08000764:    e7ff        ..      B        0x8000766 ; SEGGER_RTT_Write + 26
        0x08000766:    f000fa97    ....    BL       _DoInit ; 0x8000c98
        0x0800076a:    e7ff        ..      B        0x800076c ; SEGGER_RTT_Write + 32
        0x0800076c:    e7ff        ..      B        0x800076e ; SEGGER_RTT_Write + 34
        0x0800076e:    f3ef8010    ....    MRS      r0,PRIMASK
        0x08000772:    2101        .!      MOVS     r1,#1
        0x08000774:    f3818810    ....    MSR      PRIMASK,r1
        0x08000778:    9000        ..      STR      r0,[sp,#0]
        0x0800077a:    9805        ..      LDR      r0,[sp,#0x14]
        0x0800077c:    9904        ..      LDR      r1,[sp,#0x10]
        0x0800077e:    9a03        ..      LDR      r2,[sp,#0xc]
        0x08000780:    f000f808    ....    BL       SEGGER_RTT_WriteNoLock ; 0x8000794
        0x08000784:    9002        ..      STR      r0,[sp,#8]
        0x08000786:    9800        ..      LDR      r0,[sp,#0]
        0x08000788:    f3808810    ....    MSR      PRIMASK,r0
        0x0800078c:    9802        ..      LDR      r0,[sp,#8]
        0x0800078e:    b006        ..      ADD      sp,sp,#0x18
        0x08000790:    bd80        ..      POP      {r7,pc}
        0x08000792:    46c0        .F      MOV      r8,r8
    SEGGER_RTT_WriteNoLock
        0x08000794:    b580        ..      PUSH     {r7,lr}
        0x08000796:    b08a        ..      SUB      sp,sp,#0x28
        0x08000798:    9009        ..      STR      r0,[sp,#0x24]
        0x0800079a:    9108        ..      STR      r1,[sp,#0x20]
        0x0800079c:    9207        ..      STR      r2,[sp,#0x1c]
        0x0800079e:    9808        ..      LDR      r0,[sp,#0x20]
        0x080007a0:    9004        ..      STR      r0,[sp,#0x10]
        0x080007a2:    9809        ..      LDR      r0,[sp,#0x24]
        0x080007a4:    2118        .!      MOVS     r1,#0x18
        0x080007a6:    4341        AC      MULS     r1,r0,r1
        0x080007a8:    4824        $H      LDR      r0,[pc,#144] ; [0x800083c] = 0x200000a8
        0x080007aa:    1840        @.      ADDS     r0,r0,r1
        0x080007ac:    3018        .0      ADDS     r0,r0,#0x18
        0x080007ae:    9003        ..      STR      r0,[sp,#0xc]
        0x080007b0:    9803        ..      LDR      r0,[sp,#0xc]
        0x080007b2:    6940        @i      LDR      r0,[r0,#0x14]
        0x080007b4:    9002        ..      STR      r0,[sp,#8]
        0x080007b6:    b140        @.      CBZ      r0,0x80007ca ; SEGGER_RTT_WriteNoLock + 54
        0x080007b8:    e7ff        ..      B        0x80007ba ; SEGGER_RTT_WriteNoLock + 38
        0x080007ba:    9802        ..      LDR      r0,[sp,#8]
        0x080007bc:    2801        .(      CMP      r0,#1
        0x080007be:    d019        ..      BEQ      0x80007f4 ; SEGGER_RTT_WriteNoLock + 96
        0x080007c0:    e7ff        ..      B        0x80007c2 ; SEGGER_RTT_WriteNoLock + 46
        0x080007c2:    9802        ..      LDR      r0,[sp,#8]
        0x080007c4:    2802        .(      CMP      r0,#2
        0x080007c6:    d02c        ,.      BEQ      0x8000822 ; SEGGER_RTT_WriteNoLock + 142
        0x080007c8:    e032        2.      B        0x8000830 ; SEGGER_RTT_WriteNoLock + 156
        0x080007ca:    9803        ..      LDR      r0,[sp,#0xc]
        0x080007cc:    f000fab2    ....    BL       _GetAvailWriteSpace ; 0x8000d34
        0x080007d0:    9005        ..      STR      r0,[sp,#0x14]
        0x080007d2:    9805        ..      LDR      r0,[sp,#0x14]
        0x080007d4:    9907        ..      LDR      r1,[sp,#0x1c]
        0x080007d6:    4288        .B      CMP      r0,r1
        0x080007d8:    d203        ..      BCS      0x80007e2 ; SEGGER_RTT_WriteNoLock + 78
        0x080007da:    e7ff        ..      B        0x80007dc ; SEGGER_RTT_WriteNoLock + 72
        0x080007dc:    2000        .       MOVS     r0,#0
        0x080007de:    9006        ..      STR      r0,[sp,#0x18]
        0x080007e0:    e007        ..      B        0x80007f2 ; SEGGER_RTT_WriteNoLock + 94
        0x080007e2:    9807        ..      LDR      r0,[sp,#0x1c]
        0x080007e4:    9006        ..      STR      r0,[sp,#0x18]
        0x080007e6:    9803        ..      LDR      r0,[sp,#0xc]
        0x080007e8:    9904        ..      LDR      r1,[sp,#0x10]
        0x080007ea:    9a07        ..      LDR      r2,[sp,#0x1c]
        0x080007ec:    f000fd2e    ....    BL       _WriteNoCheck ; 0x800124c
        0x080007f0:    e7ff        ..      B        0x80007f2 ; SEGGER_RTT_WriteNoLock + 94
        0x080007f2:    e020         .      B        0x8000836 ; SEGGER_RTT_WriteNoLock + 162
        0x080007f4:    9803        ..      LDR      r0,[sp,#0xc]
        0x080007f6:    f000fa9d    ....    BL       _GetAvailWriteSpace ; 0x8000d34
        0x080007fa:    9005        ..      STR      r0,[sp,#0x14]
        0x080007fc:    9805        ..      LDR      r0,[sp,#0x14]
        0x080007fe:    9907        ..      LDR      r1,[sp,#0x1c]
        0x08000800:    4288        .B      CMP      r0,r1
        0x08000802:    d203        ..      BCS      0x800080c ; SEGGER_RTT_WriteNoLock + 120
        0x08000804:    e7ff        ..      B        0x8000806 ; SEGGER_RTT_WriteNoLock + 114
        0x08000806:    9805        ..      LDR      r0,[sp,#0x14]
        0x08000808:    9001        ..      STR      r0,[sp,#4]
        0x0800080a:    e002        ..      B        0x8000812 ; SEGGER_RTT_WriteNoLock + 126
        0x0800080c:    9807        ..      LDR      r0,[sp,#0x1c]
        0x0800080e:    9001        ..      STR      r0,[sp,#4]
        0x08000810:    e7ff        ..      B        0x8000812 ; SEGGER_RTT_WriteNoLock + 126
        0x08000812:    9801        ..      LDR      r0,[sp,#4]
        0x08000814:    9006        ..      STR      r0,[sp,#0x18]
        0x08000816:    9803        ..      LDR      r0,[sp,#0xc]
        0x08000818:    9904        ..      LDR      r1,[sp,#0x10]
        0x0800081a:    9a06        ..      LDR      r2,[sp,#0x18]
        0x0800081c:    f000fd16    ....    BL       _WriteNoCheck ; 0x800124c
        0x08000820:    e009        ..      B        0x8000836 ; SEGGER_RTT_WriteNoLock + 162
        0x08000822:    9803        ..      LDR      r0,[sp,#0xc]
        0x08000824:    9904        ..      LDR      r1,[sp,#0x10]
        0x08000826:    9a07        ..      LDR      r2,[sp,#0x1c]
        0x08000828:    f000fc9e    ....    BL       _WriteBlocking ; 0x8001168
        0x0800082c:    9006        ..      STR      r0,[sp,#0x18]
        0x0800082e:    e002        ..      B        0x8000836 ; SEGGER_RTT_WriteNoLock + 162
        0x08000830:    2000        .       MOVS     r0,#0
        0x08000832:    9006        ..      STR      r0,[sp,#0x18]
        0x08000834:    e7ff        ..      B        0x8000836 ; SEGGER_RTT_WriteNoLock + 162
        0x08000836:    9806        ..      LDR      r0,[sp,#0x18]
        0x08000838:    b00a        ..      ADD      sp,sp,#0x28
        0x0800083a:    bd80        ..      POP      {r7,pc}
    $d.18
    __arm_cp.11_0
        0x0800083c:    200000a8    ...     DCD    536871080
    $t.6
    SEGGER_RTT_printf
        0x08000840:    b082        ..      SUB      sp,sp,#8
        0x08000842:    b580        ..      PUSH     {r7,lr}
        0x08000844:    b084        ..      SUB      sp,sp,#0x10
        0x08000846:    9307        ..      STR      r3,[sp,#0x1c]
        0x08000848:    9206        ..      STR      r2,[sp,#0x18]
        0x0800084a:    9003        ..      STR      r0,[sp,#0xc]
        0x0800084c:    9102        ..      STR      r1,[sp,#8]
        0x0800084e:    a806        ..      ADD      r0,sp,#0x18
        0x08000850:    9000        ..      STR      r0,[sp,#0]
        0x08000852:    9803        ..      LDR      r0,[sp,#0xc]
        0x08000854:    9902        ..      LDR      r1,[sp,#8]
        0x08000856:    466a        jF      MOV      r2,sp
        0x08000858:    f000f808    ....    BL       SEGGER_RTT_vprintf ; 0x800086c
        0x0800085c:    9001        ..      STR      r0,[sp,#4]
        0x0800085e:    9801        ..      LDR      r0,[sp,#4]
        0x08000860:    b004        ..      ADD      sp,sp,#0x10
        0x08000862:    bc80        ..      POP      {r7}
        0x08000864:    bc02        ..      POP      {r1}
        0x08000866:    b002        ..      ADD      sp,sp,#8
        0x08000868:    468e        .F      MOV      lr,r1
        0x0800086a:    4770        pG      BX       lr
    SEGGER_RTT_vprintf
        0x0800086c:    b580        ..      PUSH     {r7,lr}
        0x0800086e:    b0a4        ..      SUB      sp,sp,#0x90
        0x08000870:    9023        #.      STR      r0,[sp,#0x8c]
        0x08000872:    9122        ".      STR      r1,[sp,#0x88]
        0x08000874:    9221        !.      STR      r2,[sp,#0x84]
        0x08000876:    a807        ..      ADD      r0,sp,#0x1c
        0x08000878:    901b        ..      STR      r0,[sp,#0x6c]
        0x0800087a:    2040        @       MOVS     r0,#0x40
        0x0800087c:    901c        ..      STR      r0,[sp,#0x70]
        0x0800087e:    2000        .       MOVS     r0,#0
        0x08000880:    901d        ..      STR      r0,[sp,#0x74]
        0x08000882:    9923        #.      LDR      r1,[sp,#0x8c]
        0x08000884:    911f        ..      STR      r1,[sp,#0x7c]
        0x08000886:    901e        ..      STR      r0,[sp,#0x78]
        0x08000888:    e7ff        ..      B        0x800088a ; SEGGER_RTT_vprintf + 30
        0x0800088a:    9822        ".      LDR      r0,[sp,#0x88]
        0x0800088c:    7801        .x      LDRB     r1,[r0,#0]
        0x0800088e:    a820         .      ADD      r0,sp,#0x80
        0x08000890:    7001        .p      STRB     r1,[r0,#0]
        0x08000892:    9922        ".      LDR      r1,[sp,#0x88]
        0x08000894:    1c49        I.      ADDS     r1,r1,#1
        0x08000896:    9122        ".      STR      r1,[sp,#0x88]
        0x08000898:    7800        .x      LDRB     r0,[r0,#0]
        0x0800089a:    b908        ..      CBNZ     r0,0x80008a0 ; SEGGER_RTT_vprintf + 52
        0x0800089c:    e7ff        ..      B        0x800089e ; SEGGER_RTT_vprintf + 50
        0x0800089e:    e171        q.      B        0x8000b84 ; SEGGER_RTT_vprintf + 792
        0x080008a0:    a820         .      ADD      r0,sp,#0x80
        0x080008a2:    7800        .x      LDRB     r0,[r0,#0]
        0x080008a4:    2825        %(      CMP      r0,#0x25
        0x080008a6:    d000        ..      BEQ      0x80008aa ; SEGGER_RTT_vprintf + 62
        0x080008a8:    e161        a.      B        0x8000b6e ; SEGGER_RTT_vprintf + 770
        0x080008aa:    2000        .       MOVS     r0,#0
        0x080008ac:    9018        ..      STR      r0,[sp,#0x60]
        0x080008ae:    2001        .       MOVS     r0,#1
        0x080008b0:    901a        ..      STR      r0,[sp,#0x68]
        0x080008b2:    e7ff        ..      B        0x80008b4 ; SEGGER_RTT_vprintf + 72
        0x080008b4:    9822        ".      LDR      r0,[sp,#0x88]
        0x080008b6:    7801        .x      LDRB     r1,[r0,#0]
        0x080008b8:    a820         .      ADD      r0,sp,#0x80
        0x080008ba:    7001        .p      STRB     r1,[r0,#0]
        0x080008bc:    7800        .x      LDRB     r0,[r0,#0]
        0x080008be:    3823        #8      SUBS     r0,r0,#0x23
        0x080008c0:    9004        ..      STR      r0,[sp,#0x10]
        0x080008c2:    280d        .(      CMP      r0,#0xd
        0x080008c4:    d840        @.      BHI      0x8000948 ; SEGGER_RTT_vprintf + 220
        0x080008c6:    9904        ..      LDR      r1,[sp,#0x10]
        0x080008c8:    008a        ..      LSLS     r2,r1,#2
        0x080008ca:    a001        ..      ADR      r0,{pc}+6 ; 0x80008d0
        0x080008cc:    1880        ..      ADDS     r0,r0,r2
        0x080008ce:    4687        .F      MOV      pc,r0
        0x080008d0:    f000b832    ..2.    B.W      0x8000938 ; SEGGER_RTT_vprintf + 204
        0x080008d4:    f000b838    ..8.    B.W      0x8000948 ; SEGGER_RTT_vprintf + 220
        0x080008d8:    f000b836    ..6.    B.W      0x8000948 ; SEGGER_RTT_vprintf + 220
        0x080008dc:    f000b834    ..4.    B.W      0x8000948 ; SEGGER_RTT_vprintf + 220
        0x080008e0:    f000b832    ..2.    B.W      0x8000948 ; SEGGER_RTT_vprintf + 220
        0x080008e4:    f000b830    ..0.    B.W      0x8000948 ; SEGGER_RTT_vprintf + 220
        0x080008e8:    f000b82e    ....    B.W      0x8000948 ; SEGGER_RTT_vprintf + 220
        0x080008ec:    f000b82c    ..,.    B.W      0x8000948 ; SEGGER_RTT_vprintf + 220
        0x080008f0:    f000b81a    ....    B.W      0x8000928 ; SEGGER_RTT_vprintf + 188
        0x080008f4:    f000b828    ..(.    B.W      0x8000948 ; SEGGER_RTT_vprintf + 220
        0x080008f8:    f000b806    ....    B.W      0x8000908 ; SEGGER_RTT_vprintf + 156
        0x080008fc:    f000b824    ..$.    B.W      0x8000948 ; SEGGER_RTT_vprintf + 220
        0x08000900:    f000b822    ..".    B.W      0x8000948 ; SEGGER_RTT_vprintf + 220
        0x08000904:    f000b808    ....    B.W      0x8000918 ; SEGGER_RTT_vprintf + 172
        0x08000908:    9818        ..      LDR      r0,[sp,#0x60]
        0x0800090a:    2101        .!      MOVS     r1,#1
        0x0800090c:    4308        .C      ORRS     r0,r0,r1
        0x0800090e:    9018        ..      STR      r0,[sp,#0x60]
        0x08000910:    9822        ".      LDR      r0,[sp,#0x88]
        0x08000912:    1c40        @.      ADDS     r0,r0,#1
        0x08000914:    9022        ".      STR      r0,[sp,#0x88]
        0x08000916:    e01a        ..      B        0x800094e ; SEGGER_RTT_vprintf + 226
        0x08000918:    9818        ..      LDR      r0,[sp,#0x60]
        0x0800091a:    2102        .!      MOVS     r1,#2
        0x0800091c:    4308        .C      ORRS     r0,r0,r1
        0x0800091e:    9018        ..      STR      r0,[sp,#0x60]
        0x08000920:    9822        ".      LDR      r0,[sp,#0x88]
        0x08000922:    1c40        @.      ADDS     r0,r0,#1
        0x08000924:    9022        ".      STR      r0,[sp,#0x88]
        0x08000926:    e012        ..      B        0x800094e ; SEGGER_RTT_vprintf + 226
        0x08000928:    9818        ..      LDR      r0,[sp,#0x60]
        0x0800092a:    2104        .!      MOVS     r1,#4
        0x0800092c:    4308        .C      ORRS     r0,r0,r1
        0x0800092e:    9018        ..      STR      r0,[sp,#0x60]
        0x08000930:    9822        ".      LDR      r0,[sp,#0x88]
        0x08000932:    1c40        @.      ADDS     r0,r0,#1
        0x08000934:    9022        ".      STR      r0,[sp,#0x88]
        0x08000936:    e00a        ..      B        0x800094e ; SEGGER_RTT_vprintf + 226
        0x08000938:    9818        ..      LDR      r0,[sp,#0x60]
        0x0800093a:    2108        .!      MOVS     r1,#8
        0x0800093c:    4308        .C      ORRS     r0,r0,r1
        0x0800093e:    9018        ..      STR      r0,[sp,#0x60]
        0x08000940:    9822        ".      LDR      r0,[sp,#0x88]
        0x08000942:    1c40        @.      ADDS     r0,r0,#1
        0x08000944:    9022        ".      STR      r0,[sp,#0x88]
        0x08000946:    e002        ..      B        0x800094e ; SEGGER_RTT_vprintf + 226
        0x08000948:    2000        .       MOVS     r0,#0
        0x0800094a:    901a        ..      STR      r0,[sp,#0x68]
        0x0800094c:    e7ff        ..      B        0x800094e ; SEGGER_RTT_vprintf + 226
        0x0800094e:    e7ff        ..      B        0x8000950 ; SEGGER_RTT_vprintf + 228
        0x08000950:    981a        ..      LDR      r0,[sp,#0x68]
        0x08000952:    2800        .(      CMP      r0,#0
        0x08000954:    d1ae        ..      BNE      0x80008b4 ; SEGGER_RTT_vprintf + 72
        0x08000956:    e7ff        ..      B        0x8000958 ; SEGGER_RTT_vprintf + 236
        0x08000958:    2000        .       MOVS     r0,#0
        0x0800095a:    9017        ..      STR      r0,[sp,#0x5c]
        0x0800095c:    e7ff        ..      B        0x800095e ; SEGGER_RTT_vprintf + 242
        0x0800095e:    9822        ".      LDR      r0,[sp,#0x88]
        0x08000960:    7801        .x      LDRB     r1,[r0,#0]
        0x08000962:    a820         .      ADD      r0,sp,#0x80
        0x08000964:    7001        .p      STRB     r1,[r0,#0]
        0x08000966:    7800        .x      LDRB     r0,[r0,#0]
        0x08000968:    2830        0(      CMP      r0,#0x30
        0x0800096a:    db05        ..      BLT      0x8000978 ; SEGGER_RTT_vprintf + 268
        0x0800096c:    e7ff        ..      B        0x800096e ; SEGGER_RTT_vprintf + 258
        0x0800096e:    a820         .      ADD      r0,sp,#0x80
        0x08000970:    7800        .x      LDRB     r0,[r0,#0]
        0x08000972:    283a        :(      CMP      r0,#0x3a
        0x08000974:    db01        ..      BLT      0x800097a ; SEGGER_RTT_vprintf + 270
        0x08000976:    e7ff        ..      B        0x8000978 ; SEGGER_RTT_vprintf + 268
        0x08000978:    e00f        ..      B        0x800099a ; SEGGER_RTT_vprintf + 302
        0x0800097a:    9822        ".      LDR      r0,[sp,#0x88]
        0x0800097c:    1c40        @.      ADDS     r0,r0,#1
        0x0800097e:    9022        ".      STR      r0,[sp,#0x88]
        0x08000980:    9817        ..      LDR      r0,[sp,#0x5c]
        0x08000982:    210a        .!      MOVS     r1,#0xa
        0x08000984:    4341        AC      MULS     r1,r0,r1
        0x08000986:    a820         .      ADD      r0,sp,#0x80
        0x08000988:    7800        .x      LDRB     r0,[r0,#0]
        0x0800098a:    1840        @.      ADDS     r0,r0,r1
        0x0800098c:    3830        08      SUBS     r0,r0,#0x30
        0x0800098e:    9017        ..      STR      r0,[sp,#0x5c]
        0x08000990:    e7ff        ..      B        0x8000992 ; SEGGER_RTT_vprintf + 294
        0x08000992:    2001        .       MOVS     r0,#1
        0x08000994:    2800        .(      CMP      r0,#0
        0x08000996:    d1e2        ..      BNE      0x800095e ; SEGGER_RTT_vprintf + 242
        0x08000998:    e7ff        ..      B        0x800099a ; SEGGER_RTT_vprintf + 302
        0x0800099a:    2000        .       MOVS     r0,#0
        0x0800099c:    9019        ..      STR      r0,[sp,#0x64]
        0x0800099e:    9822        ".      LDR      r0,[sp,#0x88]
        0x080009a0:    7801        .x      LDRB     r1,[r0,#0]
        0x080009a2:    a820         .      ADD      r0,sp,#0x80
        0x080009a4:    7001        .p      STRB     r1,[r0,#0]
        0x080009a6:    7800        .x      LDRB     r0,[r0,#0]
        0x080009a8:    282e        .(      CMP      r0,#0x2e
        0x080009aa:    d123        #.      BNE      0x80009f4 ; SEGGER_RTT_vprintf + 392
        0x080009ac:    e7ff        ..      B        0x80009ae ; SEGGER_RTT_vprintf + 322
        0x080009ae:    9822        ".      LDR      r0,[sp,#0x88]
        0x080009b0:    1c40        @.      ADDS     r0,r0,#1
        0x080009b2:    9022        ".      STR      r0,[sp,#0x88]
        0x080009b4:    e7ff        ..      B        0x80009b6 ; SEGGER_RTT_vprintf + 330
        0x080009b6:    9822        ".      LDR      r0,[sp,#0x88]
        0x080009b8:    7801        .x      LDRB     r1,[r0,#0]
        0x080009ba:    a820         .      ADD      r0,sp,#0x80
        0x080009bc:    7001        .p      STRB     r1,[r0,#0]
        0x080009be:    7800        .x      LDRB     r0,[r0,#0]
        0x080009c0:    2830        0(      CMP      r0,#0x30
        0x080009c2:    db05        ..      BLT      0x80009d0 ; SEGGER_RTT_vprintf + 356
        0x080009c4:    e7ff        ..      B        0x80009c6 ; SEGGER_RTT_vprintf + 346
        0x080009c6:    a820         .      ADD      r0,sp,#0x80
        0x080009c8:    7800        .x      LDRB     r0,[r0,#0]
        0x080009ca:    283a        :(      CMP      r0,#0x3a
        0x080009cc:    db01        ..      BLT      0x80009d2 ; SEGGER_RTT_vprintf + 358
        0x080009ce:    e7ff        ..      B        0x80009d0 ; SEGGER_RTT_vprintf + 356
        0x080009d0:    e00f        ..      B        0x80009f2 ; SEGGER_RTT_vprintf + 390
        0x080009d2:    9822        ".      LDR      r0,[sp,#0x88]
        0x080009d4:    1c40        @.      ADDS     r0,r0,#1
        0x080009d6:    9022        ".      STR      r0,[sp,#0x88]
        0x080009d8:    9819        ..      LDR      r0,[sp,#0x64]
        0x080009da:    210a        .!      MOVS     r1,#0xa
        0x080009dc:    4341        AC      MULS     r1,r0,r1
        0x080009de:    a820         .      ADD      r0,sp,#0x80
        0x080009e0:    7800        .x      LDRB     r0,[r0,#0]
        0x080009e2:    1840        @.      ADDS     r0,r0,r1
        0x080009e4:    3830        08      SUBS     r0,r0,#0x30
        0x080009e6:    9019        ..      STR      r0,[sp,#0x64]
        0x080009e8:    e7ff        ..      B        0x80009ea ; SEGGER_RTT_vprintf + 382
        0x080009ea:    2001        .       MOVS     r0,#1
        0x080009ec:    2800        .(      CMP      r0,#0
        0x080009ee:    d1e2        ..      BNE      0x80009b6 ; SEGGER_RTT_vprintf + 330
        0x080009f0:    e7ff        ..      B        0x80009f2 ; SEGGER_RTT_vprintf + 390
        0x080009f2:    e7ff        ..      B        0x80009f4 ; SEGGER_RTT_vprintf + 392
        0x080009f4:    9822        ".      LDR      r0,[sp,#0x88]
        0x080009f6:    7800        .x      LDRB     r0,[r0,#0]
        0x080009f8:    a920         .      ADD      r1,sp,#0x80
        0x080009fa:    7008        .p      STRB     r0,[r1,#0]
        0x080009fc:    e7ff        ..      B        0x80009fe ; SEGGER_RTT_vprintf + 402
        0x080009fe:    a820         .      ADD      r0,sp,#0x80
        0x08000a00:    7800        .x      LDRB     r0,[r0,#0]
        0x08000a02:    286c        l(      CMP      r0,#0x6c
        0x08000a04:    d005        ..      BEQ      0x8000a12 ; SEGGER_RTT_vprintf + 422
        0x08000a06:    e7ff        ..      B        0x8000a08 ; SEGGER_RTT_vprintf + 412
        0x08000a08:    a820         .      ADD      r0,sp,#0x80
        0x08000a0a:    7800        .x      LDRB     r0,[r0,#0]
        0x08000a0c:    2868        h(      CMP      r0,#0x68
        0x08000a0e:    d108        ..      BNE      0x8000a22 ; SEGGER_RTT_vprintf + 438
        0x08000a10:    e7ff        ..      B        0x8000a12 ; SEGGER_RTT_vprintf + 422
        0x08000a12:    9822        ".      LDR      r0,[sp,#0x88]
        0x08000a14:    1c40        @.      ADDS     r0,r0,#1
        0x08000a16:    9022        ".      STR      r0,[sp,#0x88]
        0x08000a18:    9822        ".      LDR      r0,[sp,#0x88]
        0x08000a1a:    7800        .x      LDRB     r0,[r0,#0]
        0x08000a1c:    a920         .      ADD      r1,sp,#0x80
        0x08000a1e:    7008        .p      STRB     r0,[r1,#0]
        0x08000a20:    e000        ..      B        0x8000a24 ; SEGGER_RTT_vprintf + 440
        0x08000a22:    e004        ..      B        0x8000a2e ; SEGGER_RTT_vprintf + 450
        0x08000a24:    e7ff        ..      B        0x8000a26 ; SEGGER_RTT_vprintf + 442
        0x08000a26:    2001        .       MOVS     r0,#1
        0x08000a28:    2800        .(      CMP      r0,#0
        0x08000a2a:    d1e8        ..      BNE      0x80009fe ; SEGGER_RTT_vprintf + 402
        0x08000a2c:    e7ff        ..      B        0x8000a2e ; SEGGER_RTT_vprintf + 450
        0x08000a2e:    a820         .      ADD      r0,sp,#0x80
        0x08000a30:    7800        .x      LDRB     r0,[r0,#0]
        0x08000a32:    9003        ..      STR      r0,[sp,#0xc]
        0x08000a34:    2825        %(      CMP      r0,#0x25
        0x08000a36:    d100        ..      BNE      0x8000a3a ; SEGGER_RTT_vprintf + 462
        0x08000a38:    e08f        ..      B        0x8000b5a ; SEGGER_RTT_vprintf + 750
        0x08000a3a:    9803        ..      LDR      r0,[sp,#0xc]
        0x08000a3c:    2858        X(      CMP      r0,#0x58
        0x08000a3e:    d048        H.      BEQ      0x8000ad2 ; SEGGER_RTT_vprintf + 614
        0x08000a40:    e7ff        ..      B        0x8000a42 ; SEGGER_RTT_vprintf + 470
        0x08000a42:    9803        ..      LDR      r0,[sp,#0xc]
        0x08000a44:    2863        c(      CMP      r0,#0x63
        0x08000a46:    d014        ..      BEQ      0x8000a72 ; SEGGER_RTT_vprintf + 518
        0x08000a48:    e7ff        ..      B        0x8000a4a ; SEGGER_RTT_vprintf + 478
        0x08000a4a:    9803        ..      LDR      r0,[sp,#0xc]
        0x08000a4c:    2864        d(      CMP      r0,#0x64
        0x08000a4e:    d01e        ..      BEQ      0x8000a8e ; SEGGER_RTT_vprintf + 546
        0x08000a50:    e7ff        ..      B        0x8000a52 ; SEGGER_RTT_vprintf + 486
        0x08000a52:    9803        ..      LDR      r0,[sp,#0xc]
        0x08000a54:    2870        p(      CMP      r0,#0x70
        0x08000a56:    d070        p.      BEQ      0x8000b3a ; SEGGER_RTT_vprintf + 718
        0x08000a58:    e7ff        ..      B        0x8000a5a ; SEGGER_RTT_vprintf + 494
        0x08000a5a:    9803        ..      LDR      r0,[sp,#0xc]
        0x08000a5c:    2873        s(      CMP      r0,#0x73
        0x08000a5e:    d049        I.      BEQ      0x8000af4 ; SEGGER_RTT_vprintf + 648
        0x08000a60:    e7ff        ..      B        0x8000a62 ; SEGGER_RTT_vprintf + 502
        0x08000a62:    9803        ..      LDR      r0,[sp,#0xc]
        0x08000a64:    2875        u(      CMP      r0,#0x75
        0x08000a66:    d023        #.      BEQ      0x8000ab0 ; SEGGER_RTT_vprintf + 580
        0x08000a68:    e7ff        ..      B        0x8000a6a ; SEGGER_RTT_vprintf + 510
        0x08000a6a:    9803        ..      LDR      r0,[sp,#0xc]
        0x08000a6c:    2878        x(      CMP      r0,#0x78
        0x08000a6e:    d030        0.      BEQ      0x8000ad2 ; SEGGER_RTT_vprintf + 614
        0x08000a70:    e078        x.      B        0x8000b64 ; SEGGER_RTT_vprintf + 760
        0x08000a72:    9a21        !.      LDR      r2,[sp,#0x84]
        0x08000a74:    6810        .h      LDR      r0,[r2,#0]
        0x08000a76:    1d01        ..      ADDS     r1,r0,#4
        0x08000a78:    6011        .`      STR      r1,[r2,#0]
        0x08000a7a:    6800        .h      LDR      r0,[r0,#0]
        0x08000a7c:    901a        ..      STR      r0,[sp,#0x68]
        0x08000a7e:    991a        ..      LDR      r1,[sp,#0x68]
        0x08000a80:    a806        ..      ADD      r0,sp,#0x18
        0x08000a82:    7001        .p      STRB     r1,[r0,#0]
        0x08000a84:    7801        .x      LDRB     r1,[r0,#0]
        0x08000a86:    a81b        ..      ADD      r0,sp,#0x6c
        0x08000a88:    f000fb34    ..4.    BL       _StoreChar ; 0x80010f4
        0x08000a8c:    e06b        k.      B        0x8000b66 ; SEGGER_RTT_vprintf + 762
        0x08000a8e:    9a21        !.      LDR      r2,[sp,#0x84]
        0x08000a90:    6810        .h      LDR      r0,[r2,#0]
        0x08000a92:    1d01        ..      ADDS     r1,r0,#4
        0x08000a94:    6011        .`      STR      r1,[r2,#0]
        0x08000a96:    6800        .h      LDR      r0,[r0,#0]
        0x08000a98:    901a        ..      STR      r0,[sp,#0x68]
        0x08000a9a:    991a        ..      LDR      r1,[sp,#0x68]
        0x08000a9c:    9b19        ..      LDR      r3,[sp,#0x64]
        0x08000a9e:    9817        ..      LDR      r0,[sp,#0x5c]
        0x08000aa0:    9a18        ..      LDR      r2,[sp,#0x60]
        0x08000aa2:    9201        ..      STR      r2,[sp,#4]
        0x08000aa4:    9000        ..      STR      r0,[sp,#0]
        0x08000aa6:    a81b        ..      ADD      r0,sp,#0x6c
        0x08000aa8:    220a        ."      MOVS     r2,#0xa
        0x08000aaa:    f000f962    ..b.    BL       _PrintInt ; 0x8000d72
        0x08000aae:    e05a        Z.      B        0x8000b66 ; SEGGER_RTT_vprintf + 762
        0x08000ab0:    9a21        !.      LDR      r2,[sp,#0x84]
        0x08000ab2:    6810        .h      LDR      r0,[r2,#0]
        0x08000ab4:    1d01        ..      ADDS     r1,r0,#4
        0x08000ab6:    6011        .`      STR      r1,[r2,#0]
        0x08000ab8:    6800        .h      LDR      r0,[r0,#0]
        0x08000aba:    901a        ..      STR      r0,[sp,#0x68]
        0x08000abc:    991a        ..      LDR      r1,[sp,#0x68]
        0x08000abe:    9b19        ..      LDR      r3,[sp,#0x64]
        0x08000ac0:    9817        ..      LDR      r0,[sp,#0x5c]
        0x08000ac2:    9a18        ..      LDR      r2,[sp,#0x60]
        0x08000ac4:    9201        ..      STR      r2,[sp,#4]
        0x08000ac6:    9000        ..      STR      r0,[sp,#0]
        0x08000ac8:    a81b        ..      ADD      r0,sp,#0x6c
        0x08000aca:    220a        ."      MOVS     r2,#0xa
        0x08000acc:    f000fa38    ..8.    BL       _PrintUnsigned ; 0x8000f40
        0x08000ad0:    e049        I.      B        0x8000b66 ; SEGGER_RTT_vprintf + 762
        0x08000ad2:    9a21        !.      LDR      r2,[sp,#0x84]
        0x08000ad4:    6810        .h      LDR      r0,[r2,#0]
        0x08000ad6:    1d01        ..      ADDS     r1,r0,#4
        0x08000ad8:    6011        .`      STR      r1,[r2,#0]
        0x08000ada:    6800        .h      LDR      r0,[r0,#0]
        0x08000adc:    901a        ..      STR      r0,[sp,#0x68]
        0x08000ade:    991a        ..      LDR      r1,[sp,#0x68]
        0x08000ae0:    9b19        ..      LDR      r3,[sp,#0x64]
        0x08000ae2:    9817        ..      LDR      r0,[sp,#0x5c]
        0x08000ae4:    9a18        ..      LDR      r2,[sp,#0x60]
        0x08000ae6:    9201        ..      STR      r2,[sp,#4]
        0x08000ae8:    9000        ..      STR      r0,[sp,#0]
        0x08000aea:    a81b        ..      ADD      r0,sp,#0x6c
        0x08000aec:    2210        ."      MOVS     r2,#0x10
        0x08000aee:    f000fa27    ..'.    BL       _PrintUnsigned ; 0x8000f40
        0x08000af2:    e038        8.      B        0x8000b66 ; SEGGER_RTT_vprintf + 762
        0x08000af4:    9a21        !.      LDR      r2,[sp,#0x84]
        0x08000af6:    6810        .h      LDR      r0,[r2,#0]
        0x08000af8:    1d01        ..      ADDS     r1,r0,#4
        0x08000afa:    6011        .`      STR      r1,[r2,#0]
        0x08000afc:    6800        .h      LDR      r0,[r0,#0]
        0x08000afe:    9005        ..      STR      r0,[sp,#0x14]
        0x08000b00:    9805        ..      LDR      r0,[sp,#0x14]
        0x08000b02:    b918        ..      CBNZ     r0,0x8000b0c ; SEGGER_RTT_vprintf + 672
        0x08000b04:    e7ff        ..      B        0x8000b06 ; SEGGER_RTT_vprintf + 666
        0x08000b06:    482a        *H      LDR      r0,[pc,#168] ; [0x8000bb0] = 0x8002374
        0x08000b08:    9005        ..      STR      r0,[sp,#0x14]
        0x08000b0a:    e7ff        ..      B        0x8000b0c ; SEGGER_RTT_vprintf + 672
        0x08000b0c:    e7ff        ..      B        0x8000b0e ; SEGGER_RTT_vprintf + 674
        0x08000b0e:    9805        ..      LDR      r0,[sp,#0x14]
        0x08000b10:    7801        .x      LDRB     r1,[r0,#0]
        0x08000b12:    a820         .      ADD      r0,sp,#0x80
        0x08000b14:    7001        .p      STRB     r1,[r0,#0]
        0x08000b16:    9905        ..      LDR      r1,[sp,#0x14]
        0x08000b18:    1c49        I.      ADDS     r1,r1,#1
        0x08000b1a:    9105        ..      STR      r1,[sp,#0x14]
        0x08000b1c:    7800        .x      LDRB     r0,[r0,#0]
        0x08000b1e:    b908        ..      CBNZ     r0,0x8000b24 ; SEGGER_RTT_vprintf + 696
        0x08000b20:    e7ff        ..      B        0x8000b22 ; SEGGER_RTT_vprintf + 694
        0x08000b22:    e009        ..      B        0x8000b38 ; SEGGER_RTT_vprintf + 716
        0x08000b24:    a820         .      ADD      r0,sp,#0x80
        0x08000b26:    7801        .x      LDRB     r1,[r0,#0]
        0x08000b28:    a81b        ..      ADD      r0,sp,#0x6c
        0x08000b2a:    f000fae3    ....    BL       _StoreChar ; 0x80010f4
        0x08000b2e:    e7ff        ..      B        0x8000b30 ; SEGGER_RTT_vprintf + 708
        0x08000b30:    981e        ..      LDR      r0,[sp,#0x78]
        0x08000b32:    2800        .(      CMP      r0,#0
        0x08000b34:    d5eb        ..      BPL      0x8000b0e ; SEGGER_RTT_vprintf + 674
        0x08000b36:    e7ff        ..      B        0x8000b38 ; SEGGER_RTT_vprintf + 716
        0x08000b38:    e015        ..      B        0x8000b66 ; SEGGER_RTT_vprintf + 762
        0x08000b3a:    9a21        !.      LDR      r2,[sp,#0x84]
        0x08000b3c:    6810        .h      LDR      r0,[r2,#0]
        0x08000b3e:    1d01        ..      ADDS     r1,r0,#4
        0x08000b40:    6011        .`      STR      r1,[r2,#0]
        0x08000b42:    6800        .h      LDR      r0,[r0,#0]
        0x08000b44:    901a        ..      STR      r0,[sp,#0x68]
        0x08000b46:    991a        ..      LDR      r1,[sp,#0x68]
        0x08000b48:    2000        .       MOVS     r0,#0
        0x08000b4a:    9001        ..      STR      r0,[sp,#4]
        0x08000b4c:    2308        .#      MOVS     r3,#8
        0x08000b4e:    9300        ..      STR      r3,[sp,#0]
        0x08000b50:    a81b        ..      ADD      r0,sp,#0x6c
        0x08000b52:    2210        ."      MOVS     r2,#0x10
        0x08000b54:    f000f9f4    ....    BL       _PrintUnsigned ; 0x8000f40
        0x08000b58:    e005        ..      B        0x8000b66 ; SEGGER_RTT_vprintf + 762
        0x08000b5a:    a81b        ..      ADD      r0,sp,#0x6c
        0x08000b5c:    2125        %!      MOVS     r1,#0x25
        0x08000b5e:    f000fac9    ....    BL       _StoreChar ; 0x80010f4
        0x08000b62:    e000        ..      B        0x8000b66 ; SEGGER_RTT_vprintf + 762
        0x08000b64:    e7ff        ..      B        0x8000b66 ; SEGGER_RTT_vprintf + 762
        0x08000b66:    9822        ".      LDR      r0,[sp,#0x88]
        0x08000b68:    1c40        @.      ADDS     r0,r0,#1
        0x08000b6a:    9022        ".      STR      r0,[sp,#0x88]
        0x08000b6c:    e005        ..      B        0x8000b7a ; SEGGER_RTT_vprintf + 782
        0x08000b6e:    a820         .      ADD      r0,sp,#0x80
        0x08000b70:    7801        .x      LDRB     r1,[r0,#0]
        0x08000b72:    a81b        ..      ADD      r0,sp,#0x6c
        0x08000b74:    f000fabe    ....    BL       _StoreChar ; 0x80010f4
        0x08000b78:    e7ff        ..      B        0x8000b7a ; SEGGER_RTT_vprintf + 782
        0x08000b7a:    e7ff        ..      B        0x8000b7c ; SEGGER_RTT_vprintf + 784
        0x08000b7c:    981e        ..      LDR      r0,[sp,#0x78]
        0x08000b7e:    2800        .(      CMP      r0,#0
        0x08000b80:    d400        ..      BMI      0x8000b84 ; SEGGER_RTT_vprintf + 792
        0x08000b82:    e682        ..      B        0x800088a ; SEGGER_RTT_vprintf + 30
        0x08000b84:    981e        ..      LDR      r0,[sp,#0x78]
        0x08000b86:    2801        .(      CMP      r0,#1
        0x08000b88:    db0e        ..      BLT      0x8000ba8 ; SEGGER_RTT_vprintf + 828
        0x08000b8a:    e7ff        ..      B        0x8000b8c ; SEGGER_RTT_vprintf + 800
        0x08000b8c:    981d        ..      LDR      r0,[sp,#0x74]
        0x08000b8e:    b130        0.      CBZ      r0,0x8000b9e ; SEGGER_RTT_vprintf + 818
        0x08000b90:    e7ff        ..      B        0x8000b92 ; SEGGER_RTT_vprintf + 806
        0x08000b92:    9823        #.      LDR      r0,[sp,#0x8c]
        0x08000b94:    9a1d        ..      LDR      r2,[sp,#0x74]
        0x08000b96:    a907        ..      ADD      r1,sp,#0x1c
        0x08000b98:    f7fffdd8    ....    BL       SEGGER_RTT_Write ; 0x800074c
        0x08000b9c:    e7ff        ..      B        0x8000b9e ; SEGGER_RTT_vprintf + 818
        0x08000b9e:    991d        ..      LDR      r1,[sp,#0x74]
        0x08000ba0:    981e        ..      LDR      r0,[sp,#0x78]
        0x08000ba2:    1840        @.      ADDS     r0,r0,r1
        0x08000ba4:    901e        ..      STR      r0,[sp,#0x78]
        0x08000ba6:    e7ff        ..      B        0x8000ba8 ; SEGGER_RTT_vprintf + 828
        0x08000ba8:    981e        ..      LDR      r0,[sp,#0x78]
        0x08000baa:    b024        $.      ADD      sp,sp,#0x90
        0x08000bac:    bd80        ..      POP      {r7,pc}
        0x08000bae:    46c0        .F      MOV      r8,r8
    $d.1
    __arm_cp.0_0
        0x08000bb0:    08002374    t#..    DCD    134226804
    $t.2
    SVC_Handler
        0x08000bb4:    4770        pG      BX       lr
    SysTick_Handler
        0x08000bb6:    b580        ..      PUSH     {r7,lr}
        0x08000bb8:    f000fc84    ....    BL       delay_decrement ; 0x80014c4
        0x08000bbc:    bd80        ..      POP      {r7,pc}
        0x08000bbe:    0000        ..      MOVS     r0,r0
    SystemInit
        0x08000bc0:    b510        ..      PUSH     {r4,lr}
        0x08000bc2:    b082        ..      SUB      sp,sp,#8
        0x08000bc4:    491d        .I      LDR      r1,[pc,#116] ; [0x8000c3c] = 0x40021000
        0x08000bc6:    6808        .h      LDR      r0,[r1,#0]
        0x08000bc8:    2201        ."      MOVS     r2,#1
        0x08000bca:    4310        .C      ORRS     r0,r0,r2
        0x08000bcc:    6008        .`      STR      r0,[r1,#0]
        0x08000bce:    e7ff        ..      B        0x8000bd0 ; SystemInit + 16
        0x08000bd0:    481a        .H      LDR      r0,[pc,#104] ; [0x8000c3c] = 0x40021000
        0x08000bd2:    6800        .h      LDR      r0,[r0,#0]
        0x08000bd4:    0780        ..      LSLS     r0,r0,#30
        0x08000bd6:    2800        .(      CMP      r0,#0
        0x08000bd8:    d401        ..      BMI      0x8000bde ; SystemInit + 30
        0x08000bda:    e7ff        ..      B        0x8000bdc ; SystemInit + 28
        0x08000bdc:    e7f8        ..      B        0x8000bd0 ; SystemInit + 16
        0x08000bde:    4918        .I      LDR      r1,[pc,#96] ; [0x8000c40] = 0x40021004
        0x08000be0:    6808        .h      LDR      r0,[r1,#0]
        0x08000be2:    2203        ."      MOVS     r2,#3
        0x08000be4:    4390        .C      BICS     r0,r0,r2
        0x08000be6:    6008        .`      STR      r0,[r1,#0]
        0x08000be8:    4b14        .K      LDR      r3,[pc,#80] ; [0x8000c3c] = 0x40021000
        0x08000bea:    6818        .h      LDR      r0,[r3,#0]
        0x08000bec:    4c15        .L      LDR      r4,[pc,#84] ; [0x8000c44] = 0xfef2ffff
        0x08000bee:    4020         @      ANDS     r0,r0,r4
        0x08000bf0:    6018        .`      STR      r0,[r3,#0]
        0x08000bf2:    6808        .h      LDR      r0,[r1,#0]
        0x08000bf4:    4b14        .K      LDR      r3,[pc,#80] ; [0x8000c48] = 0x8ff000c
        0x08000bf6:    4018        .@      ANDS     r0,r0,r3
        0x08000bf8:    6008        .`      STR      r0,[r1,#0]
        0x08000bfa:    6808        .h      LDR      r0,[r1,#0]
        0x08000bfc:    4b13        .K      LDR      r3,[pc,#76] ; [0x8000c4c] = 0x7f00ffff
        0x08000bfe:    4018        .@      ANDS     r0,r0,r3
        0x08000c00:    6008        .`      STR      r0,[r1,#0]
        0x08000c02:    4913        .I      LDR      r1,[pc,#76] ; [0x8000c50] = 0x4002102c
        0x08000c04:    6808        .h      LDR      r0,[r1,#0]
        0x08000c06:    230f        .#      MOVS     r3,#0xf
        0x08000c08:    4398        .C      BICS     r0,r0,r3
        0x08000c0a:    6008        .`      STR      r0,[r1,#0]
        0x08000c0c:    4911        .I      LDR      r1,[pc,#68] ; [0x8000c54] = 0x40021030
        0x08000c0e:    6808        .h      LDR      r0,[r1,#0]
        0x08000c10:    f2401303    @...    MOV      r3,#0x103
        0x08000c14:    4398        .C      BICS     r0,r0,r3
        0x08000c16:    6008        .`      STR      r0,[r1,#0]
        0x08000c18:    6808        .h      LDR      r0,[r1,#0]
        0x08000c1a:    0792        ..      LSLS     r2,r2,#30
        0x08000c1c:    4390        .C      BICS     r0,r0,r2
        0x08000c1e:    6008        .`      STR      r0,[r1,#0]
        0x08000c20:    490d        .I      LDR      r1,[pc,#52] ; [0x8000c58] = 0x40021008
        0x08000c22:    2000        .       MOVS     r0,#0
        0x08000c24:    9001        ..      STR      r0,[sp,#4]
        0x08000c26:    6008        .`      STR      r0,[r1,#0]
        0x08000c28:    f001fa7e    ..~.    BL       system_clock_config ; 0x8002128
        0x08000c2c:    9901        ..      LDR      r1,[sp,#4]
        0x08000c2e:    2001        .       MOVS     r0,#1
        0x08000c30:    06c0        ..      LSLS     r0,r0,#27
        0x08000c32:    f001f84f    ..O.    BL       nvic_vector_table_set ; 0x8001cd4
        0x08000c36:    b002        ..      ADD      sp,sp,#8
        0x08000c38:    bd10        ..      POP      {r4,pc}
        0x08000c3a:    46c0        .F      MOV      r8,r8
    $d.1
    __arm_cp.0_0
        0x08000c3c:    40021000    ...@    DCD    1073876992
    __arm_cp.0_1
        0x08000c40:    40021004    ...@    DCD    1073876996
    __arm_cp.0_2
        0x08000c44:    fef2ffff    ....    DCD    4277338111
    __arm_cp.0_3
        0x08000c48:    08ff000c    ....    DCD    150929420
    __arm_cp.0_4
        0x08000c4c:    7f00ffff    ....    DCD    2130771967
    __arm_cp.0_5
        0x08000c50:    4002102c    ,..@    DCD    1073877036
    __arm_cp.0_6
        0x08000c54:    40021030    0..@    DCD    1073877040
    __arm_cp.0_7
        0x08000c58:    40021008    ...@    DCD    1073877000
    $t.0
    TIMER1_IRQHandler
        0x08000c5c:    b580        ..      PUSH     {r7,lr}
        0x08000c5e:    2101        .!      MOVS     r1,#1
        0x08000c60:    0788        ..      LSLS     r0,r1,#30
        0x08000c62:    f001fb54    ..T.    BL       timer_interrupt_flag_get ; 0x800230e
        0x08000c66:    b168        h.      CBZ      r0,0x8000c84 ; TIMER1_IRQHandler + 40
        0x08000c68:    e7ff        ..      B        0x8000c6a ; TIMER1_IRQHandler + 14
        0x08000c6a:    4807        .H      LDR      r0,[pc,#28] ; [0x8000c88] = 0x20000898
        0x08000c6c:    6800        .h      LDR      r0,[r0,#0]
        0x08000c6e:    b120         .      CBZ      r0,0x8000c7a ; TIMER1_IRQHandler + 30
        0x08000c70:    e7ff        ..      B        0x8000c72 ; TIMER1_IRQHandler + 22
        0x08000c72:    4805        .H      LDR      r0,[pc,#20] ; [0x8000c88] = 0x20000898
        0x08000c74:    6800        .h      LDR      r0,[r0,#0]
        0x08000c76:    4780        .G      BLX      r0
        0x08000c78:    e7ff        ..      B        0x8000c7a ; TIMER1_IRQHandler + 30
        0x08000c7a:    2101        .!      MOVS     r1,#1
        0x08000c7c:    0788        ..      LSLS     r0,r1,#30
        0x08000c7e:    f001fb3d    ..=.    BL       timer_interrupt_flag_clear ; 0x80022fc
        0x08000c82:    e7ff        ..      B        0x8000c84 ; TIMER1_IRQHandler + 40
        0x08000c84:    bd80        ..      POP      {r7,pc}
        0x08000c86:    46c0        .F      MOV      r8,r8
    $d.1
    __arm_cp.0_0
        0x08000c88:    20000898    ...     DCD    536873112
    $t.17
    TIMER2_IRQHandler
        0x08000c8c:    4770        pG      BX       lr
    TIMER5_IRQHandler
        0x08000c8e:    4770        pG      BX       lr
    UART3_IRQHandler
        0x08000c90:    4770        pG      BX       lr
    UART4_IRQHandler
        0x08000c92:    4770        pG      BX       lr
    USART1_IRQHandler
        0x08000c94:    4770        pG      BX       lr
        0x08000c96:    0000        ..      MOVS     r0,r0
    _DoInit
        0x08000c98:    b580        ..      PUSH     {r7,lr}
        0x08000c9a:    b082        ..      SUB      sp,sp,#8
        0x08000c9c:    4820         H      LDR      r0,[pc,#128] ; [0x8000d20] = 0x200000a8
        0x08000c9e:    9001        ..      STR      r0,[sp,#4]
        0x08000ca0:    9801        ..      LDR      r0,[sp,#4]
        0x08000ca2:    21a8        .!      MOVS     r1,#0xa8
        0x08000ca4:    f7fffbf3    ....    BL       __aeabi_memclr4 ; 0x800048e
        0x08000ca8:    9901        ..      LDR      r1,[sp,#4]
        0x08000caa:    2003        .       MOVS     r0,#3
        0x08000cac:    6108        .a      STR      r0,[r1,#0x10]
        0x08000cae:    9901        ..      LDR      r1,[sp,#4]
        0x08000cb0:    6148        Ha      STR      r0,[r1,#0x14]
        0x08000cb2:    9801        ..      LDR      r0,[sp,#4]
        0x08000cb4:    491b        .I      LDR      r1,[pc,#108] ; [0x8000d24] = 0x800236b
        0x08000cb6:    6181        .a      STR      r1,[r0,#0x18]
        0x08000cb8:    9a01        ..      LDR      r2,[sp,#4]
        0x08000cba:    481b        .H      LDR      r0,[pc,#108] ; [0x8000d28] = 0x20000160
        0x08000cbc:    61d0        .a      STR      r0,[r2,#0x1c]
        0x08000cbe:    9a01        ..      LDR      r2,[sp,#4]
        0x08000cc0:    f2404000    @..@    MOVW     r0,#0x400
        0x08000cc4:    6210        .b      STR      r0,[r2,#0x20]
        0x08000cc6:    9a01        ..      LDR      r2,[sp,#4]
        0x08000cc8:    2000        .       MOVS     r0,#0
        0x08000cca:    6290        .b      STR      r0,[r2,#0x28]
        0x08000ccc:    9a01        ..      LDR      r2,[sp,#4]
        0x08000cce:    6250        Pb      STR      r0,[r2,#0x24]
        0x08000cd0:    9a01        ..      LDR      r2,[sp,#4]
        0x08000cd2:    62d0        .b      STR      r0,[r2,#0x2c]
        0x08000cd4:    9a01        ..      LDR      r2,[sp,#4]
        0x08000cd6:    6611        .f      STR      r1,[r2,#0x60]
        0x08000cd8:    9a01        ..      LDR      r2,[sp,#4]
        0x08000cda:    4914        .I      LDR      r1,[pc,#80] ; [0x8000d2c] = 0x20000150
        0x08000cdc:    6651        Qf      STR      r1,[r2,#0x64]
        0x08000cde:    9a01        ..      LDR      r2,[sp,#4]
        0x08000ce0:    2110        .!      MOVS     r1,#0x10
        0x08000ce2:    6691        .f      STR      r1,[r2,#0x68]
        0x08000ce4:    9901        ..      LDR      r1,[sp,#4]
        0x08000ce6:    6708        .g      STR      r0,[r1,#0x70]
        0x08000ce8:    9901        ..      LDR      r1,[sp,#4]
        0x08000cea:    66c8        .f      STR      r0,[r1,#0x6c]
        0x08000cec:    9901        ..      LDR      r1,[sp,#4]
        0x08000cee:    6748        Hg      STR      r0,[r1,#0x74]
        0x08000cf0:    f3bf8f5f    .._.    DMB      
        0x08000cf4:    9000        ..      STR      r0,[sp,#0]
        0x08000cf6:    e7ff        ..      B        0x8000cf8 ; _DoInit + 96
        0x08000cf8:    9800        ..      LDR      r0,[sp,#0]
        0x08000cfa:    280f        .(      CMP      r0,#0xf
        0x08000cfc:    d80b        ..      BHI      0x8000d16 ; _DoInit + 126
        0x08000cfe:    e7ff        ..      B        0x8000d00 ; _DoInit + 104
        0x08000d00:    9a00        ..      LDR      r2,[sp,#0]
        0x08000d02:    480b        .H      LDR      r0,[pc,#44] ; [0x8000d30] = 0x8002342
        0x08000d04:    1a80        ..      SUBS     r0,r0,r2
        0x08000d06:    7bc0        .{      LDRB     r0,[r0,#0xf]
        0x08000d08:    9901        ..      LDR      r1,[sp,#4]
        0x08000d0a:    5488        .T      STRB     r0,[r1,r2]
        0x08000d0c:    e7ff        ..      B        0x8000d0e ; _DoInit + 118
        0x08000d0e:    9800        ..      LDR      r0,[sp,#0]
        0x08000d10:    1c40        @.      ADDS     r0,r0,#1
        0x08000d12:    9000        ..      STR      r0,[sp,#0]
        0x08000d14:    e7f0        ..      B        0x8000cf8 ; _DoInit + 96
        0x08000d16:    f3bf8f5f    .._.    DMB      
        0x08000d1a:    b002        ..      ADD      sp,sp,#8
        0x08000d1c:    bd80        ..      POP      {r7,pc}
        0x08000d1e:    46c0        .F      MOV      r8,r8
    $d.3
    __arm_cp.1_0
        0x08000d20:    200000a8    ...     DCD    536871080
    __arm_cp.1_1
        0x08000d24:    0800236b    k#..    DCD    134226795
    __arm_cp.1_2
        0x08000d28:    20000160    `..     DCD    536871264
    __arm_cp.1_3
        0x08000d2c:    20000150    P..     DCD    536871248
    __arm_cp.1_4
        0x08000d30:    08002342    B#..    DCD    134226754
    $t.14
    _GetAvailWriteSpace
        0x08000d34:    b084        ..      SUB      sp,sp,#0x10
        0x08000d36:    9003        ..      STR      r0,[sp,#0xc]
        0x08000d38:    9803        ..      LDR      r0,[sp,#0xc]
        0x08000d3a:    6900        .i      LDR      r0,[r0,#0x10]
        0x08000d3c:    9002        ..      STR      r0,[sp,#8]
        0x08000d3e:    9803        ..      LDR      r0,[sp,#0xc]
        0x08000d40:    68c0        .h      LDR      r0,[r0,#0xc]
        0x08000d42:    9001        ..      STR      r0,[sp,#4]
        0x08000d44:    9802        ..      LDR      r0,[sp,#8]
        0x08000d46:    9901        ..      LDR      r1,[sp,#4]
        0x08000d48:    4288        .B      CMP      r0,r1
        0x08000d4a:    d809        ..      BHI      0x8000d60 ; _GetAvailWriteSpace + 44
        0x08000d4c:    e7ff        ..      B        0x8000d4e ; _GetAvailWriteSpace + 26
        0x08000d4e:    9803        ..      LDR      r0,[sp,#0xc]
        0x08000d50:    6881        .h      LDR      r1,[r0,#8]
        0x08000d52:    9801        ..      LDR      r0,[sp,#4]
        0x08000d54:    43c0        .C      MVNS     r0,r0
        0x08000d56:    1840        @.      ADDS     r0,r0,r1
        0x08000d58:    9902        ..      LDR      r1,[sp,#8]
        0x08000d5a:    1840        @.      ADDS     r0,r0,r1
        0x08000d5c:    9000        ..      STR      r0,[sp,#0]
        0x08000d5e:    e005        ..      B        0x8000d6c ; _GetAvailWriteSpace + 56
        0x08000d60:    9902        ..      LDR      r1,[sp,#8]
        0x08000d62:    9801        ..      LDR      r0,[sp,#4]
        0x08000d64:    43c0        .C      MVNS     r0,r0
        0x08000d66:    1840        @.      ADDS     r0,r0,r1
        0x08000d68:    9000        ..      STR      r0,[sp,#0]
        0x08000d6a:    e7ff        ..      B        0x8000d6c ; _GetAvailWriteSpace + 56
        0x08000d6c:    9800        ..      LDR      r0,[sp,#0]
        0x08000d6e:    b004        ..      ADD      sp,sp,#0x10
        0x08000d70:    4770        pG      BX       lr
    _PrintInt
        0x08000d72:    b5b0        ..      PUSH     {r4,r5,r7,lr}
        0x08000d74:    b090        ..      SUB      sp,sp,#0x40
        0x08000d76:    9c15        ..      LDR      r4,[sp,#0x54]
        0x08000d78:    9c14        ..      LDR      r4,[sp,#0x50]
        0x08000d7a:    900f        ..      STR      r0,[sp,#0x3c]
        0x08000d7c:    910e        ..      STR      r1,[sp,#0x38]
        0x08000d7e:    920d        ..      STR      r2,[sp,#0x34]
        0x08000d80:    930c        ..      STR      r3,[sp,#0x30]
        0x08000d82:    980e        ..      LDR      r0,[sp,#0x38]
        0x08000d84:    2800        .(      CMP      r0,#0
        0x08000d86:    d504        ..      BPL      0x8000d92 ; _PrintInt + 32
        0x08000d88:    e7ff        ..      B        0x8000d8a ; _PrintInt + 24
        0x08000d8a:    980e        ..      LDR      r0,[sp,#0x38]
        0x08000d8c:    4240        @B      RSBS     r0,r0,#0
        0x08000d8e:    9009        ..      STR      r0,[sp,#0x24]
        0x08000d90:    e002        ..      B        0x8000d98 ; _PrintInt + 38
        0x08000d92:    980e        ..      LDR      r0,[sp,#0x38]
        0x08000d94:    9009        ..      STR      r0,[sp,#0x24]
        0x08000d96:    e7ff        ..      B        0x8000d98 ; _PrintInt + 38
        0x08000d98:    9809        ..      LDR      r0,[sp,#0x24]
        0x08000d9a:    900a        ..      STR      r0,[sp,#0x28]
        0x08000d9c:    2001        .       MOVS     r0,#1
        0x08000d9e:    900b        ..      STR      r0,[sp,#0x2c]
        0x08000da0:    e7ff        ..      B        0x8000da2 ; _PrintInt + 48
        0x08000da2:    980a        ..      LDR      r0,[sp,#0x28]
        0x08000da4:    990d        ..      LDR      r1,[sp,#0x34]
        0x08000da6:    4288        .B      CMP      r0,r1
        0x08000da8:    db09        ..      BLT      0x8000dbe ; _PrintInt + 76
        0x08000daa:    e7ff        ..      B        0x8000dac ; _PrintInt + 58
        0x08000dac:    980a        ..      LDR      r0,[sp,#0x28]
        0x08000dae:    990d        ..      LDR      r1,[sp,#0x34]
        0x08000db0:    fb90f0f1    ....    SDIV     r0,r0,r1
        0x08000db4:    900a        ..      STR      r0,[sp,#0x28]
        0x08000db6:    980b        ..      LDR      r0,[sp,#0x2c]
        0x08000db8:    1c40        @.      ADDS     r0,r0,#1
        0x08000dba:    900b        ..      STR      r0,[sp,#0x2c]
        0x08000dbc:    e7f1        ..      B        0x8000da2 ; _PrintInt + 48
        0x08000dbe:    980c        ..      LDR      r0,[sp,#0x30]
        0x08000dc0:    990b        ..      LDR      r1,[sp,#0x2c]
        0x08000dc2:    4288        .B      CMP      r0,r1
        0x08000dc4:    d903        ..      BLS      0x8000dce ; _PrintInt + 92
        0x08000dc6:    e7ff        ..      B        0x8000dc8 ; _PrintInt + 86
        0x08000dc8:    980c        ..      LDR      r0,[sp,#0x30]
        0x08000dca:    900b        ..      STR      r0,[sp,#0x2c]
        0x08000dcc:    e7ff        ..      B        0x8000dce ; _PrintInt + 92
        0x08000dce:    9814        ..      LDR      r0,[sp,#0x50]
        0x08000dd0:    b170        p.      CBZ      r0,0x8000df0 ; _PrintInt + 126
        0x08000dd2:    e7ff        ..      B        0x8000dd4 ; _PrintInt + 98
        0x08000dd4:    980e        ..      LDR      r0,[sp,#0x38]
        0x08000dd6:    2800        .(      CMP      r0,#0
        0x08000dd8:    d406        ..      BMI      0x8000de8 ; _PrintInt + 118
        0x08000dda:    e7ff        ..      B        0x8000ddc ; _PrintInt + 106
        0x08000ddc:    a815        ..      ADD      r0,sp,#0x54
        0x08000dde:    7800        .x      LDRB     r0,[r0,#0]
        0x08000de0:    0740        @.      LSLS     r0,r0,#29
        0x08000de2:    2800        .(      CMP      r0,#0
        0x08000de4:    d504        ..      BPL      0x8000df0 ; _PrintInt + 126
        0x08000de6:    e7ff        ..      B        0x8000de8 ; _PrintInt + 118
        0x08000de8:    9814        ..      LDR      r0,[sp,#0x50]
        0x08000dea:    1e40        @.      SUBS     r0,r0,#1
        0x08000dec:    9014        ..      STR      r0,[sp,#0x50]
        0x08000dee:    e7ff        ..      B        0x8000df0 ; _PrintInt + 126
        0x08000df0:    a815        ..      ADD      r0,sp,#0x54
        0x08000df2:    7800        .x      LDRB     r0,[r0,#0]
        0x08000df4:    0780        ..      LSLS     r0,r0,#30
        0x08000df6:    2800        .(      CMP      r0,#0
        0x08000df8:    d503        ..      BPL      0x8000e02 ; _PrintInt + 144
        0x08000dfa:    e7ff        ..      B        0x8000dfc ; _PrintInt + 138
        0x08000dfc:    980c        ..      LDR      r0,[sp,#0x30]
        0x08000dfe:    b378        x.      CBZ      r0,0x8000e60 ; _PrintInt + 238
        0x08000e00:    e7ff        ..      B        0x8000e02 ; _PrintInt + 144
        0x08000e02:    a815        ..      ADD      r0,sp,#0x54
        0x08000e04:    7800        .x      LDRB     r0,[r0,#0]
        0x08000e06:    07c0        ..      LSLS     r0,r0,#31
        0x08000e08:    bb50        P.      CBNZ     r0,0x8000e60 ; _PrintInt + 238
        0x08000e0a:    e7ff        ..      B        0x8000e0c ; _PrintInt + 154
        0x08000e0c:    9814        ..      LDR      r0,[sp,#0x50]
        0x08000e0e:    b330        0.      CBZ      r0,0x8000e5e ; _PrintInt + 236
        0x08000e10:    e7ff        ..      B        0x8000e12 ; _PrintInt + 160
        0x08000e12:    e7ff        ..      B        0x8000e14 ; _PrintInt + 162
        0x08000e14:    9914        ..      LDR      r1,[sp,#0x50]
        0x08000e16:    2000        .       MOVS     r0,#0
        0x08000e18:    9008        ..      STR      r0,[sp,#0x20]
        0x08000e1a:    b169        i.      CBZ      r1,0x8000e38 ; _PrintInt + 198
        0x08000e1c:    e7ff        ..      B        0x8000e1e ; _PrintInt + 172
        0x08000e1e:    990b        ..      LDR      r1,[sp,#0x2c]
        0x08000e20:    9a14        ..      LDR      r2,[sp,#0x50]
        0x08000e22:    2001        .       MOVS     r0,#1
        0x08000e24:    2300        .#      MOVS     r3,#0
        0x08000e26:    9306        ..      STR      r3,[sp,#0x18]
        0x08000e28:    4291        .B      CMP      r1,r2
        0x08000e2a:    9007        ..      STR      r0,[sp,#0x1c]
        0x08000e2c:    d301        ..      BCC      0x8000e32 ; _PrintInt + 192
        0x08000e2e:    9806        ..      LDR      r0,[sp,#0x18]
        0x08000e30:    9007        ..      STR      r0,[sp,#0x1c]
        0x08000e32:    9807        ..      LDR      r0,[sp,#0x1c]
        0x08000e34:    9008        ..      STR      r0,[sp,#0x20]
        0x08000e36:    e7ff        ..      B        0x8000e38 ; _PrintInt + 198
        0x08000e38:    9808        ..      LDR      r0,[sp,#0x20]
        0x08000e3a:    07c0        ..      LSLS     r0,r0,#31
        0x08000e3c:    b170        p.      CBZ      r0,0x8000e5c ; _PrintInt + 234
        0x08000e3e:    e7ff        ..      B        0x8000e40 ; _PrintInt + 206
        0x08000e40:    9814        ..      LDR      r0,[sp,#0x50]
        0x08000e42:    1e40        @.      SUBS     r0,r0,#1
        0x08000e44:    9014        ..      STR      r0,[sp,#0x50]
        0x08000e46:    980f        ..      LDR      r0,[sp,#0x3c]
        0x08000e48:    2120         !      MOVS     r1,#0x20
        0x08000e4a:    f000f953    ..S.    BL       _StoreChar ; 0x80010f4
        0x08000e4e:    980f        ..      LDR      r0,[sp,#0x3c]
        0x08000e50:    68c0        .h      LDR      r0,[r0,#0xc]
        0x08000e52:    2800        .(      CMP      r0,#0
        0x08000e54:    d501        ..      BPL      0x8000e5a ; _PrintInt + 232
        0x08000e56:    e7ff        ..      B        0x8000e58 ; _PrintInt + 230
        0x08000e58:    e000        ..      B        0x8000e5c ; _PrintInt + 234
        0x08000e5a:    e7db        ..      B        0x8000e14 ; _PrintInt + 162
        0x08000e5c:    e7ff        ..      B        0x8000e5e ; _PrintInt + 236
        0x08000e5e:    e7ff        ..      B        0x8000e60 ; _PrintInt + 238
        0x08000e60:    980f        ..      LDR      r0,[sp,#0x3c]
        0x08000e62:    68c0        .h      LDR      r0,[r0,#0xc]
        0x08000e64:    2800        .(      CMP      r0,#0
        0x08000e66:    d468        h.      BMI      0x8000f3a ; _PrintInt + 456
        0x08000e68:    e7ff        ..      B        0x8000e6a ; _PrintInt + 248
        0x08000e6a:    980e        ..      LDR      r0,[sp,#0x38]
        0x08000e6c:    2800        .(      CMP      r0,#0
        0x08000e6e:    d508        ..      BPL      0x8000e82 ; _PrintInt + 272
        0x08000e70:    e7ff        ..      B        0x8000e72 ; _PrintInt + 256
        0x08000e72:    980e        ..      LDR      r0,[sp,#0x38]
        0x08000e74:    4240        @B      RSBS     r0,r0,#0
        0x08000e76:    900e        ..      STR      r0,[sp,#0x38]
        0x08000e78:    980f        ..      LDR      r0,[sp,#0x3c]
        0x08000e7a:    212d        -!      MOVS     r1,#0x2d
        0x08000e7c:    f000f93a    ..:.    BL       _StoreChar ; 0x80010f4
        0x08000e80:    e00c        ..      B        0x8000e9c ; _PrintInt + 298
        0x08000e82:    a815        ..      ADD      r0,sp,#0x54
        0x08000e84:    7800        .x      LDRB     r0,[r0,#0]
        0x08000e86:    0740        @.      LSLS     r0,r0,#29
        0x08000e88:    2800        .(      CMP      r0,#0
        0x08000e8a:    d505        ..      BPL      0x8000e98 ; _PrintInt + 294
        0x08000e8c:    e7ff        ..      B        0x8000e8e ; _PrintInt + 284
        0x08000e8e:    980f        ..      LDR      r0,[sp,#0x3c]
        0x08000e90:    212b        +!      MOVS     r1,#0x2b
        0x08000e92:    f000f92f    ../.    BL       _StoreChar ; 0x80010f4
        0x08000e96:    e000        ..      B        0x8000e9a ; _PrintInt + 296
        0x08000e98:    e7ff        ..      B        0x8000e9a ; _PrintInt + 296
        0x08000e9a:    e7ff        ..      B        0x8000e9c ; _PrintInt + 298
        0x08000e9c:    980f        ..      LDR      r0,[sp,#0x3c]
        0x08000e9e:    68c0        .h      LDR      r0,[r0,#0xc]
        0x08000ea0:    2800        .(      CMP      r0,#0
        0x08000ea2:    d449        I.      BMI      0x8000f38 ; _PrintInt + 454
        0x08000ea4:    e7ff        ..      B        0x8000ea6 ; _PrintInt + 308
        0x08000ea6:    a815        ..      ADD      r0,sp,#0x54
        0x08000ea8:    7800        .x      LDRB     r0,[r0,#0]
        0x08000eaa:    0780        ..      LSLS     r0,r0,#30
        0x08000eac:    2800        .(      CMP      r0,#0
        0x08000eae:    d532        2.      BPL      0x8000f16 ; _PrintInt + 420
        0x08000eb0:    e7ff        ..      B        0x8000eb2 ; _PrintInt + 320
        0x08000eb2:    a815        ..      ADD      r0,sp,#0x54
        0x08000eb4:    7800        .x      LDRB     r0,[r0,#0]
        0x08000eb6:    07c0        ..      LSLS     r0,r0,#31
        0x08000eb8:    bb68        h.      CBNZ     r0,0x8000f16 ; _PrintInt + 420
        0x08000eba:    e7ff        ..      B        0x8000ebc ; _PrintInt + 330
        0x08000ebc:    980c        ..      LDR      r0,[sp,#0x30]
        0x08000ebe:    bb50        P.      CBNZ     r0,0x8000f16 ; _PrintInt + 420
        0x08000ec0:    e7ff        ..      B        0x8000ec2 ; _PrintInt + 336
        0x08000ec2:    9814        ..      LDR      r0,[sp,#0x50]
        0x08000ec4:    b330        0.      CBZ      r0,0x8000f14 ; _PrintInt + 418
        0x08000ec6:    e7ff        ..      B        0x8000ec8 ; _PrintInt + 342
        0x08000ec8:    e7ff        ..      B        0x8000eca ; _PrintInt + 344
        0x08000eca:    9914        ..      LDR      r1,[sp,#0x50]
        0x08000ecc:    2000        .       MOVS     r0,#0
        0x08000ece:    9005        ..      STR      r0,[sp,#0x14]
        0x08000ed0:    b169        i.      CBZ      r1,0x8000eee ; _PrintInt + 380
        0x08000ed2:    e7ff        ..      B        0x8000ed4 ; _PrintInt + 354
        0x08000ed4:    990b        ..      LDR      r1,[sp,#0x2c]
        0x08000ed6:    9a14        ..      LDR      r2,[sp,#0x50]
        0x08000ed8:    2001        .       MOVS     r0,#1
        0x08000eda:    2300        .#      MOVS     r3,#0
        0x08000edc:    9303        ..      STR      r3,[sp,#0xc]
        0x08000ede:    4291        .B      CMP      r1,r2
        0x08000ee0:    9004        ..      STR      r0,[sp,#0x10]
        0x08000ee2:    d301        ..      BCC      0x8000ee8 ; _PrintInt + 374
        0x08000ee4:    9803        ..      LDR      r0,[sp,#0xc]
        0x08000ee6:    9004        ..      STR      r0,[sp,#0x10]
        0x08000ee8:    9804        ..      LDR      r0,[sp,#0x10]
        0x08000eea:    9005        ..      STR      r0,[sp,#0x14]
        0x08000eec:    e7ff        ..      B        0x8000eee ; _PrintInt + 380
        0x08000eee:    9805        ..      LDR      r0,[sp,#0x14]
        0x08000ef0:    07c0        ..      LSLS     r0,r0,#31
        0x08000ef2:    b170        p.      CBZ      r0,0x8000f12 ; _PrintInt + 416
        0x08000ef4:    e7ff        ..      B        0x8000ef6 ; _PrintInt + 388
        0x08000ef6:    9814        ..      LDR      r0,[sp,#0x50]
        0x08000ef8:    1e40        @.      SUBS     r0,r0,#1
        0x08000efa:    9014        ..      STR      r0,[sp,#0x50]
        0x08000efc:    980f        ..      LDR      r0,[sp,#0x3c]
        0x08000efe:    2130        0!      MOVS     r1,#0x30
        0x08000f00:    f000f8f8    ....    BL       _StoreChar ; 0x80010f4
        0x08000f04:    980f        ..      LDR      r0,[sp,#0x3c]
        0x08000f06:    68c0        .h      LDR      r0,[r0,#0xc]
        0x08000f08:    2800        .(      CMP      r0,#0
        0x08000f0a:    d501        ..      BPL      0x8000f10 ; _PrintInt + 414
        0x08000f0c:    e7ff        ..      B        0x8000f0e ; _PrintInt + 412
        0x08000f0e:    e000        ..      B        0x8000f12 ; _PrintInt + 416
        0x08000f10:    e7db        ..      B        0x8000eca ; _PrintInt + 344
        0x08000f12:    e7ff        ..      B        0x8000f14 ; _PrintInt + 418
        0x08000f14:    e7ff        ..      B        0x8000f16 ; _PrintInt + 420
        0x08000f16:    980f        ..      LDR      r0,[sp,#0x3c]
        0x08000f18:    68c0        .h      LDR      r0,[r0,#0xc]
        0x08000f1a:    2800        .(      CMP      r0,#0
        0x08000f1c:    d40b        ..      BMI      0x8000f36 ; _PrintInt + 452
        0x08000f1e:    e7ff        ..      B        0x8000f20 ; _PrintInt + 430
        0x08000f20:    980f        ..      LDR      r0,[sp,#0x3c]
        0x08000f22:    990e        ..      LDR      r1,[sp,#0x38]
        0x08000f24:    9a0d        ..      LDR      r2,[sp,#0x34]
        0x08000f26:    9b0c        ..      LDR      r3,[sp,#0x30]
        0x08000f28:    9c14        ..      LDR      r4,[sp,#0x50]
        0x08000f2a:    9d15        ..      LDR      r5,[sp,#0x54]
        0x08000f2c:    9501        ..      STR      r5,[sp,#4]
        0x08000f2e:    9400        ..      STR      r4,[sp,#0]
        0x08000f30:    f000f806    ....    BL       _PrintUnsigned ; 0x8000f40
        0x08000f34:    e7ff        ..      B        0x8000f36 ; _PrintInt + 452
        0x08000f36:    e7ff        ..      B        0x8000f38 ; _PrintInt + 454
        0x08000f38:    e7ff        ..      B        0x8000f3a ; _PrintInt + 456
        0x08000f3a:    b010        ..      ADD      sp,sp,#0x40
        0x08000f3c:    bdb0        ..      POP      {r4,r5,r7,pc}
        0x08000f3e:    0000        ..      MOVS     r0,r0
    _PrintUnsigned
        0x08000f40:    b510        ..      PUSH     {r4,lr}
        0x08000f42:    b090        ..      SUB      sp,sp,#0x40
        0x08000f44:    9c13        ..      LDR      r4,[sp,#0x4c]
        0x08000f46:    9c12        ..      LDR      r4,[sp,#0x48]
        0x08000f48:    900f        ..      STR      r0,[sp,#0x3c]
        0x08000f4a:    910e        ..      STR      r1,[sp,#0x38]
        0x08000f4c:    920d        ..      STR      r2,[sp,#0x34]
        0x08000f4e:    930c        ..      STR      r3,[sp,#0x30]
        0x08000f50:    980e        ..      LDR      r0,[sp,#0x38]
        0x08000f52:    9009        ..      STR      r0,[sp,#0x24]
        0x08000f54:    2001        .       MOVS     r0,#1
        0x08000f56:    900a        ..      STR      r0,[sp,#0x28]
        0x08000f58:    9008        ..      STR      r0,[sp,#0x20]
        0x08000f5a:    e7ff        ..      B        0x8000f5c ; _PrintUnsigned + 28
        0x08000f5c:    9809        ..      LDR      r0,[sp,#0x24]
        0x08000f5e:    990d        ..      LDR      r1,[sp,#0x34]
        0x08000f60:    4288        .B      CMP      r0,r1
        0x08000f62:    d309        ..      BCC      0x8000f78 ; _PrintUnsigned + 56
        0x08000f64:    e7ff        ..      B        0x8000f66 ; _PrintUnsigned + 38
        0x08000f66:    9809        ..      LDR      r0,[sp,#0x24]
        0x08000f68:    990d        ..      LDR      r1,[sp,#0x34]
        0x08000f6a:    fbb0f0f1    ....    UDIV     r0,r0,r1
        0x08000f6e:    9009        ..      STR      r0,[sp,#0x24]
        0x08000f70:    9808        ..      LDR      r0,[sp,#0x20]
        0x08000f72:    1c40        @.      ADDS     r0,r0,#1
        0x08000f74:    9008        ..      STR      r0,[sp,#0x20]
        0x08000f76:    e7f1        ..      B        0x8000f5c ; _PrintUnsigned + 28
        0x08000f78:    980c        ..      LDR      r0,[sp,#0x30]
        0x08000f7a:    9908        ..      LDR      r1,[sp,#0x20]
        0x08000f7c:    4288        .B      CMP      r0,r1
        0x08000f7e:    d903        ..      BLS      0x8000f88 ; _PrintUnsigned + 72
        0x08000f80:    e7ff        ..      B        0x8000f82 ; _PrintUnsigned + 66
        0x08000f82:    980c        ..      LDR      r0,[sp,#0x30]
        0x08000f84:    9008        ..      STR      r0,[sp,#0x20]
        0x08000f86:    e7ff        ..      B        0x8000f88 ; _PrintUnsigned + 72
        0x08000f88:    a813        ..      ADD      r0,sp,#0x4c
        0x08000f8a:    7800        .x      LDRB     r0,[r0,#0]
        0x08000f8c:    07c0        ..      LSLS     r0,r0,#31
        0x08000f8e:    bbe0        ..      CBNZ     r0,0x800100a ; _PrintUnsigned + 202
        0x08000f90:    e7ff        ..      B        0x8000f92 ; _PrintUnsigned + 82
        0x08000f92:    9812        ..      LDR      r0,[sp,#0x48]
        0x08000f94:    b3c0        ..      CBZ      r0,0x8001008 ; _PrintUnsigned + 200
        0x08000f96:    e7ff        ..      B        0x8000f98 ; _PrintUnsigned + 88
        0x08000f98:    a813        ..      ADD      r0,sp,#0x4c
        0x08000f9a:    7800        .x      LDRB     r0,[r0,#0]
        0x08000f9c:    0780        ..      LSLS     r0,r0,#30
        0x08000f9e:    2800        .(      CMP      r0,#0
        0x08000fa0:    d507        ..      BPL      0x8000fb2 ; _PrintUnsigned + 114
        0x08000fa2:    e7ff        ..      B        0x8000fa4 ; _PrintUnsigned + 100
        0x08000fa4:    980c        ..      LDR      r0,[sp,#0x30]
        0x08000fa6:    b920         .      CBNZ     r0,0x8000fb2 ; _PrintUnsigned + 114
        0x08000fa8:    e7ff        ..      B        0x8000faa ; _PrintUnsigned + 106
        0x08000faa:    a907        ..      ADD      r1,sp,#0x1c
        0x08000fac:    2030        0       MOVS     r0,#0x30
        0x08000fae:    7008        .p      STRB     r0,[r1,#0]
        0x08000fb0:    e003        ..      B        0x8000fba ; _PrintUnsigned + 122
        0x08000fb2:    a907        ..      ADD      r1,sp,#0x1c
        0x08000fb4:    2020                MOVS     r0,#0x20
        0x08000fb6:    7008        .p      STRB     r0,[r1,#0]
        0x08000fb8:    e7ff        ..      B        0x8000fba ; _PrintUnsigned + 122
        0x08000fba:    e7ff        ..      B        0x8000fbc ; _PrintUnsigned + 124
        0x08000fbc:    9912        ..      LDR      r1,[sp,#0x48]
        0x08000fbe:    2000        .       MOVS     r0,#0
        0x08000fc0:    9006        ..      STR      r0,[sp,#0x18]
        0x08000fc2:    b169        i.      CBZ      r1,0x8000fe0 ; _PrintUnsigned + 160
        0x08000fc4:    e7ff        ..      B        0x8000fc6 ; _PrintUnsigned + 134
        0x08000fc6:    9908        ..      LDR      r1,[sp,#0x20]
        0x08000fc8:    9a12        ..      LDR      r2,[sp,#0x48]
        0x08000fca:    2001        .       MOVS     r0,#1
        0x08000fcc:    2300        .#      MOVS     r3,#0
        0x08000fce:    9304        ..      STR      r3,[sp,#0x10]
        0x08000fd0:    4291        .B      CMP      r1,r2
        0x08000fd2:    9005        ..      STR      r0,[sp,#0x14]
        0x08000fd4:    d301        ..      BCC      0x8000fda ; _PrintUnsigned + 154
        0x08000fd6:    9804        ..      LDR      r0,[sp,#0x10]
        0x08000fd8:    9005        ..      STR      r0,[sp,#0x14]
        0x08000fda:    9805        ..      LDR      r0,[sp,#0x14]
        0x08000fdc:    9006        ..      STR      r0,[sp,#0x18]
        0x08000fde:    e7ff        ..      B        0x8000fe0 ; _PrintUnsigned + 160
        0x08000fe0:    9806        ..      LDR      r0,[sp,#0x18]
        0x08000fe2:    07c0        ..      LSLS     r0,r0,#31
        0x08000fe4:    b178        x.      CBZ      r0,0x8001006 ; _PrintUnsigned + 198
        0x08000fe6:    e7ff        ..      B        0x8000fe8 ; _PrintUnsigned + 168
        0x08000fe8:    9812        ..      LDR      r0,[sp,#0x48]
        0x08000fea:    1e40        @.      SUBS     r0,r0,#1
        0x08000fec:    9012        ..      STR      r0,[sp,#0x48]
        0x08000fee:    980f        ..      LDR      r0,[sp,#0x3c]
        0x08000ff0:    a907        ..      ADD      r1,sp,#0x1c
        0x08000ff2:    7809        .x      LDRB     r1,[r1,#0]
        0x08000ff4:    f000f87e    ..~.    BL       _StoreChar ; 0x80010f4
        0x08000ff8:    980f        ..      LDR      r0,[sp,#0x3c]
        0x08000ffa:    68c0        .h      LDR      r0,[r0,#0xc]
        0x08000ffc:    2800        .(      CMP      r0,#0
        0x08000ffe:    d501        ..      BPL      0x8001004 ; _PrintUnsigned + 196
        0x08001000:    e7ff        ..      B        0x8001002 ; _PrintUnsigned + 194
        0x08001002:    e000        ..      B        0x8001006 ; _PrintUnsigned + 198
        0x08001004:    e7da        ..      B        0x8000fbc ; _PrintUnsigned + 124
        0x08001006:    e7ff        ..      B        0x8001008 ; _PrintUnsigned + 200
        0x08001008:    e7ff        ..      B        0x800100a ; _PrintUnsigned + 202
        0x0800100a:    980f        ..      LDR      r0,[sp,#0x3c]
        0x0800100c:    68c0        .h      LDR      r0,[r0,#0xc]
        0x0800100e:    2800        .(      CMP      r0,#0
        0x08001010:    d46c        l.      BMI      0x80010ec ; _PrintUnsigned + 428
        0x08001012:    e7ff        ..      B        0x8001014 ; _PrintUnsigned + 212
        0x08001014:    e7ff        ..      B        0x8001016 ; _PrintUnsigned + 214
        0x08001016:    980c        ..      LDR      r0,[sp,#0x30]
        0x08001018:    2802        .(      CMP      r0,#2
        0x0800101a:    d304        ..      BCC      0x8001026 ; _PrintUnsigned + 230
        0x0800101c:    e7ff        ..      B        0x800101e ; _PrintUnsigned + 222
        0x0800101e:    980c        ..      LDR      r0,[sp,#0x30]
        0x08001020:    1e40        @.      SUBS     r0,r0,#1
        0x08001022:    900c        ..      STR      r0,[sp,#0x30]
        0x08001024:    e00b        ..      B        0x800103e ; _PrintUnsigned + 254
        0x08001026:    980e        ..      LDR      r0,[sp,#0x38]
        0x08001028:    990a        ..      LDR      r1,[sp,#0x28]
        0x0800102a:    fbb0f0f1    ....    UDIV     r0,r0,r1
        0x0800102e:    900b        ..      STR      r0,[sp,#0x2c]
        0x08001030:    980b        ..      LDR      r0,[sp,#0x2c]
        0x08001032:    990d        ..      LDR      r1,[sp,#0x34]
        0x08001034:    4288        .B      CMP      r0,r1
        0x08001036:    d201        ..      BCS      0x800103c ; _PrintUnsigned + 252
        0x08001038:    e7ff        ..      B        0x800103a ; _PrintUnsigned + 250
        0x0800103a:    e005        ..      B        0x8001048 ; _PrintUnsigned + 264
        0x0800103c:    e7ff        ..      B        0x800103e ; _PrintUnsigned + 254
        0x0800103e:    980d        ..      LDR      r0,[sp,#0x34]
        0x08001040:    990a        ..      LDR      r1,[sp,#0x28]
        0x08001042:    4348        HC      MULS     r0,r1,r0
        0x08001044:    900a        ..      STR      r0,[sp,#0x28]
        0x08001046:    e7e6        ..      B        0x8001016 ; _PrintUnsigned + 214
        0x08001048:    e7ff        ..      B        0x800104a ; _PrintUnsigned + 266
        0x0800104a:    980e        ..      LDR      r0,[sp,#0x38]
        0x0800104c:    990a        ..      LDR      r1,[sp,#0x28]
        0x0800104e:    fbb0f0f1    ....    UDIV     r0,r0,r1
        0x08001052:    900b        ..      STR      r0,[sp,#0x2c]
        0x08001054:    980b        ..      LDR      r0,[sp,#0x2c]
        0x08001056:    990a        ..      LDR      r1,[sp,#0x28]
        0x08001058:    4341        AC      MULS     r1,r0,r1
        0x0800105a:    980e        ..      LDR      r0,[sp,#0x38]
        0x0800105c:    1a40        @.      SUBS     r0,r0,r1
        0x0800105e:    900e        ..      STR      r0,[sp,#0x38]
        0x08001060:    980f        ..      LDR      r0,[sp,#0x3c]
        0x08001062:    9a0b        ..      LDR      r2,[sp,#0x2c]
        0x08001064:    4922        "I      LDR      r1,[pc,#136] ; [0x80010f0] = 0x8002353
        0x08001066:    5c89        .\      LDRB     r1,[r1,r2]
        0x08001068:    f000f844    ..D.    BL       _StoreChar ; 0x80010f4
        0x0800106c:    980f        ..      LDR      r0,[sp,#0x3c]
        0x0800106e:    68c0        .h      LDR      r0,[r0,#0xc]
        0x08001070:    2800        .(      CMP      r0,#0
        0x08001072:    d501        ..      BPL      0x8001078 ; _PrintUnsigned + 312
        0x08001074:    e7ff        ..      B        0x8001076 ; _PrintUnsigned + 310
        0x08001076:    e009        ..      B        0x800108c ; _PrintUnsigned + 332
        0x08001078:    990d        ..      LDR      r1,[sp,#0x34]
        0x0800107a:    980a        ..      LDR      r0,[sp,#0x28]
        0x0800107c:    fbb0f0f1    ....    UDIV     r0,r0,r1
        0x08001080:    900a        ..      STR      r0,[sp,#0x28]
        0x08001082:    e7ff        ..      B        0x8001084 ; _PrintUnsigned + 324
        0x08001084:    980a        ..      LDR      r0,[sp,#0x28]
        0x08001086:    2800        .(      CMP      r0,#0
        0x08001088:    d1df        ..      BNE      0x800104a ; _PrintUnsigned + 266
        0x0800108a:    e7ff        ..      B        0x800108c ; _PrintUnsigned + 332
        0x0800108c:    a813        ..      ADD      r0,sp,#0x4c
        0x0800108e:    7800        .x      LDRB     r0,[r0,#0]
        0x08001090:    07c0        ..      LSLS     r0,r0,#31
        0x08001092:    b350        P.      CBZ      r0,0x80010ea ; _PrintUnsigned + 426
        0x08001094:    e7ff        ..      B        0x8001096 ; _PrintUnsigned + 342
        0x08001096:    9812        ..      LDR      r0,[sp,#0x48]
        0x08001098:    b330        0.      CBZ      r0,0x80010e8 ; _PrintUnsigned + 424
        0x0800109a:    e7ff        ..      B        0x800109c ; _PrintUnsigned + 348
        0x0800109c:    e7ff        ..      B        0x800109e ; _PrintUnsigned + 350
        0x0800109e:    9912        ..      LDR      r1,[sp,#0x48]
        0x080010a0:    2000        .       MOVS     r0,#0
        0x080010a2:    9003        ..      STR      r0,[sp,#0xc]
        0x080010a4:    b169        i.      CBZ      r1,0x80010c2 ; _PrintUnsigned + 386
        0x080010a6:    e7ff        ..      B        0x80010a8 ; _PrintUnsigned + 360
        0x080010a8:    9908        ..      LDR      r1,[sp,#0x20]
        0x080010aa:    9a12        ..      LDR      r2,[sp,#0x48]
        0x080010ac:    2001        .       MOVS     r0,#1
        0x080010ae:    2300        .#      MOVS     r3,#0
        0x080010b0:    9301        ..      STR      r3,[sp,#4]
        0x080010b2:    4291        .B      CMP      r1,r2
        0x080010b4:    9002        ..      STR      r0,[sp,#8]
        0x080010b6:    d301        ..      BCC      0x80010bc ; _PrintUnsigned + 380
        0x080010b8:    9801        ..      LDR      r0,[sp,#4]
        0x080010ba:    9002        ..      STR      r0,[sp,#8]
        0x080010bc:    9802        ..      LDR      r0,[sp,#8]
        0x080010be:    9003        ..      STR      r0,[sp,#0xc]
        0x080010c0:    e7ff        ..      B        0x80010c2 ; _PrintUnsigned + 386
        0x080010c2:    9803        ..      LDR      r0,[sp,#0xc]
        0x080010c4:    07c0        ..      LSLS     r0,r0,#31
        0x080010c6:    b170        p.      CBZ      r0,0x80010e6 ; _PrintUnsigned + 422
        0x080010c8:    e7ff        ..      B        0x80010ca ; _PrintUnsigned + 394
        0x080010ca:    9812        ..      LDR      r0,[sp,#0x48]
        0x080010cc:    1e40        @.      SUBS     r0,r0,#1
        0x080010ce:    9012        ..      STR      r0,[sp,#0x48]
        0x080010d0:    980f        ..      LDR      r0,[sp,#0x3c]
        0x080010d2:    2120         !      MOVS     r1,#0x20
        0x080010d4:    f000f80e    ....    BL       _StoreChar ; 0x80010f4
        0x080010d8:    980f        ..      LDR      r0,[sp,#0x3c]
        0x080010da:    68c0        .h      LDR      r0,[r0,#0xc]
        0x080010dc:    2800        .(      CMP      r0,#0
        0x080010de:    d501        ..      BPL      0x80010e4 ; _PrintUnsigned + 420
        0x080010e0:    e7ff        ..      B        0x80010e2 ; _PrintUnsigned + 418
        0x080010e2:    e000        ..      B        0x80010e6 ; _PrintUnsigned + 422
        0x080010e4:    e7db        ..      B        0x800109e ; _PrintUnsigned + 350
        0x080010e6:    e7ff        ..      B        0x80010e8 ; _PrintUnsigned + 424
        0x080010e8:    e7ff        ..      B        0x80010ea ; _PrintUnsigned + 426
        0x080010ea:    e7ff        ..      B        0x80010ec ; _PrintUnsigned + 428
        0x080010ec:    b010        ..      ADD      sp,sp,#0x40
        0x080010ee:    bd10        ..      POP      {r4,pc}
    $d.5
    __arm_cp.3_0
        0x080010f0:    08002353    S#..    DCD    134226771
    $t.2
    _StoreChar
        0x080010f4:    b580        ..      PUSH     {r7,lr}
        0x080010f6:    b084        ..      SUB      sp,sp,#0x10
        0x080010f8:    9003        ..      STR      r0,[sp,#0xc]
        0x080010fa:    a802        ..      ADD      r0,sp,#8
        0x080010fc:    7001        .p      STRB     r1,[r0,#0]
        0x080010fe:    9803        ..      LDR      r0,[sp,#0xc]
        0x08001100:    6880        .h      LDR      r0,[r0,#8]
        0x08001102:    9001        ..      STR      r0,[sp,#4]
        0x08001104:    9801        ..      LDR      r0,[sp,#4]
        0x08001106:    1c40        @.      ADDS     r0,r0,#1
        0x08001108:    9903        ..      LDR      r1,[sp,#0xc]
        0x0800110a:    6849        Ih      LDR      r1,[r1,#4]
        0x0800110c:    4288        .B      CMP      r0,r1
        0x0800110e:    d80e        ..      BHI      0x800112e ; _StoreChar + 58
        0x08001110:    e7ff        ..      B        0x8001112 ; _StoreChar + 30
        0x08001112:    9802        ..      LDR      r0,[sp,#8]
        0x08001114:    9903        ..      LDR      r1,[sp,#0xc]
        0x08001116:    6809        .h      LDR      r1,[r1,#0]
        0x08001118:    9a01        ..      LDR      r2,[sp,#4]
        0x0800111a:    5488        .T      STRB     r0,[r1,r2]
        0x0800111c:    9801        ..      LDR      r0,[sp,#4]
        0x0800111e:    1c40        @.      ADDS     r0,r0,#1
        0x08001120:    9903        ..      LDR      r1,[sp,#0xc]
        0x08001122:    6088        .`      STR      r0,[r1,#8]
        0x08001124:    9903        ..      LDR      r1,[sp,#0xc]
        0x08001126:    68c8        .h      LDR      r0,[r1,#0xc]
        0x08001128:    1c40        @.      ADDS     r0,r0,#1
        0x0800112a:    60c8        .`      STR      r0,[r1,#0xc]
        0x0800112c:    e7ff        ..      B        0x800112e ; _StoreChar + 58
        0x0800112e:    9903        ..      LDR      r1,[sp,#0xc]
        0x08001130:    6888        .h      LDR      r0,[r1,#8]
        0x08001132:    6849        Ih      LDR      r1,[r1,#4]
        0x08001134:    4288        .B      CMP      r0,r1
        0x08001136:    d115        ..      BNE      0x8001164 ; _StoreChar + 112
        0x08001138:    e7ff        ..      B        0x800113a ; _StoreChar + 70
        0x0800113a:    9a03        ..      LDR      r2,[sp,#0xc]
        0x0800113c:    6910        .i      LDR      r0,[r2,#0x10]
        0x0800113e:    6811        .h      LDR      r1,[r2,#0]
        0x08001140:    6892        .h      LDR      r2,[r2,#8]
        0x08001142:    f7fffb03    ....    BL       SEGGER_RTT_Write ; 0x800074c
        0x08001146:    9903        ..      LDR      r1,[sp,#0xc]
        0x08001148:    6889        .h      LDR      r1,[r1,#8]
        0x0800114a:    4288        .B      CMP      r0,r1
        0x0800114c:    d005        ..      BEQ      0x800115a ; _StoreChar + 102
        0x0800114e:    e7ff        ..      B        0x8001150 ; _StoreChar + 92
        0x08001150:    9903        ..      LDR      r1,[sp,#0xc]
        0x08001152:    2000        .       MOVS     r0,#0
        0x08001154:    43c0        .C      MVNS     r0,r0
        0x08001156:    60c8        .`      STR      r0,[r1,#0xc]
        0x08001158:    e003        ..      B        0x8001162 ; _StoreChar + 110
        0x0800115a:    9903        ..      LDR      r1,[sp,#0xc]
        0x0800115c:    2000        .       MOVS     r0,#0
        0x0800115e:    6088        .`      STR      r0,[r1,#8]
        0x08001160:    e7ff        ..      B        0x8001162 ; _StoreChar + 110
        0x08001162:    e7ff        ..      B        0x8001164 ; _StoreChar + 112
        0x08001164:    b004        ..      ADD      sp,sp,#0x10
        0x08001166:    bd80        ..      POP      {r7,pc}
    _WriteBlocking
        0x08001168:    b580        ..      PUSH     {r7,lr}
        0x0800116a:    b08a        ..      SUB      sp,sp,#0x28
        0x0800116c:    9009        ..      STR      r0,[sp,#0x24]
        0x0800116e:    9108        ..      STR      r1,[sp,#0x20]
        0x08001170:    9207        ..      STR      r2,[sp,#0x1c]
        0x08001172:    2000        .       MOVS     r0,#0
        0x08001174:    9005        ..      STR      r0,[sp,#0x14]
        0x08001176:    9809        ..      LDR      r0,[sp,#0x24]
        0x08001178:    68c0        .h      LDR      r0,[r0,#0xc]
        0x0800117a:    9003        ..      STR      r0,[sp,#0xc]
        0x0800117c:    e7ff        ..      B        0x800117e ; _WriteBlocking + 22
        0x0800117e:    9809        ..      LDR      r0,[sp,#0x24]
        0x08001180:    6900        .i      LDR      r0,[r0,#0x10]
        0x08001182:    9004        ..      STR      r0,[sp,#0x10]
        0x08001184:    9804        ..      LDR      r0,[sp,#0x10]
        0x08001186:    9903        ..      LDR      r1,[sp,#0xc]
        0x08001188:    4288        .B      CMP      r0,r1
        0x0800118a:    d906        ..      BLS      0x800119a ; _WriteBlocking + 50
        0x0800118c:    e7ff        ..      B        0x800118e ; _WriteBlocking + 38
        0x0800118e:    9904        ..      LDR      r1,[sp,#0x10]
        0x08001190:    9803        ..      LDR      r0,[sp,#0xc]
        0x08001192:    43c0        .C      MVNS     r0,r0
        0x08001194:    1840        @.      ADDS     r0,r0,r1
        0x08001196:    9006        ..      STR      r0,[sp,#0x18]
        0x08001198:    e008        ..      B        0x80011ac ; _WriteBlocking + 68
        0x0800119a:    9809        ..      LDR      r0,[sp,#0x24]
        0x0800119c:    6881        .h      LDR      r1,[r0,#8]
        0x0800119e:    9803        ..      LDR      r0,[sp,#0xc]
        0x080011a0:    9a04        ..      LDR      r2,[sp,#0x10]
        0x080011a2:    1a80        ..      SUBS     r0,r0,r2
        0x080011a4:    43c0        .C      MVNS     r0,r0
        0x080011a6:    1840        @.      ADDS     r0,r0,r1
        0x080011a8:    9006        ..      STR      r0,[sp,#0x18]
        0x080011aa:    e7ff        ..      B        0x80011ac ; _WriteBlocking + 68
        0x080011ac:    9806        ..      LDR      r0,[sp,#0x18]
        0x080011ae:    9909        ..      LDR      r1,[sp,#0x24]
        0x080011b0:    6889        .h      LDR      r1,[r1,#8]
        0x080011b2:    9a03        ..      LDR      r2,[sp,#0xc]
        0x080011b4:    1a89        ..      SUBS     r1,r1,r2
        0x080011b6:    4288        .B      CMP      r0,r1
        0x080011b8:    d203        ..      BCS      0x80011c2 ; _WriteBlocking + 90
        0x080011ba:    e7ff        ..      B        0x80011bc ; _WriteBlocking + 84
        0x080011bc:    9806        ..      LDR      r0,[sp,#0x18]
        0x080011be:    9001        ..      STR      r0,[sp,#4]
        0x080011c0:    e005        ..      B        0x80011ce ; _WriteBlocking + 102
        0x080011c2:    9809        ..      LDR      r0,[sp,#0x24]
        0x080011c4:    6880        .h      LDR      r0,[r0,#8]
        0x080011c6:    9903        ..      LDR      r1,[sp,#0xc]
        0x080011c8:    1a40        @.      SUBS     r0,r0,r1
        0x080011ca:    9001        ..      STR      r0,[sp,#4]
        0x080011cc:    e7ff        ..      B        0x80011ce ; _WriteBlocking + 102
        0x080011ce:    9801        ..      LDR      r0,[sp,#4]
        0x080011d0:    9006        ..      STR      r0,[sp,#0x18]
        0x080011d2:    9806        ..      LDR      r0,[sp,#0x18]
        0x080011d4:    9907        ..      LDR      r1,[sp,#0x1c]
        0x080011d6:    4288        .B      CMP      r0,r1
        0x080011d8:    d203        ..      BCS      0x80011e2 ; _WriteBlocking + 122
        0x080011da:    e7ff        ..      B        0x80011dc ; _WriteBlocking + 116
        0x080011dc:    9806        ..      LDR      r0,[sp,#0x18]
        0x080011de:    9000        ..      STR      r0,[sp,#0]
        0x080011e0:    e002        ..      B        0x80011e8 ; _WriteBlocking + 128
        0x080011e2:    9807        ..      LDR      r0,[sp,#0x1c]
        0x080011e4:    9000        ..      STR      r0,[sp,#0]
        0x080011e6:    e7ff        ..      B        0x80011e8 ; _WriteBlocking + 128
        0x080011e8:    9800        ..      LDR      r0,[sp,#0]
        0x080011ea:    9006        ..      STR      r0,[sp,#0x18]
        0x080011ec:    9809        ..      LDR      r0,[sp,#0x24]
        0x080011ee:    6840        @h      LDR      r0,[r0,#4]
        0x080011f0:    9903        ..      LDR      r1,[sp,#0xc]
        0x080011f2:    1840        @.      ADDS     r0,r0,r1
        0x080011f4:    9002        ..      STR      r0,[sp,#8]
        0x080011f6:    9802        ..      LDR      r0,[sp,#8]
        0x080011f8:    9908        ..      LDR      r1,[sp,#0x20]
        0x080011fa:    9a06        ..      LDR      r2,[sp,#0x18]
        0x080011fc:    f7fff8e8    ....    BL       __aeabi_memcpy ; 0x80003d0
        0x08001200:    9906        ..      LDR      r1,[sp,#0x18]
        0x08001202:    9805        ..      LDR      r0,[sp,#0x14]
        0x08001204:    1840        @.      ADDS     r0,r0,r1
        0x08001206:    9005        ..      STR      r0,[sp,#0x14]
        0x08001208:    9906        ..      LDR      r1,[sp,#0x18]
        0x0800120a:    9808        ..      LDR      r0,[sp,#0x20]
        0x0800120c:    1840        @.      ADDS     r0,r0,r1
        0x0800120e:    9008        ..      STR      r0,[sp,#0x20]
        0x08001210:    9906        ..      LDR      r1,[sp,#0x18]
        0x08001212:    9807        ..      LDR      r0,[sp,#0x1c]
        0x08001214:    1a40        @.      SUBS     r0,r0,r1
        0x08001216:    9007        ..      STR      r0,[sp,#0x1c]
        0x08001218:    9906        ..      LDR      r1,[sp,#0x18]
        0x0800121a:    9803        ..      LDR      r0,[sp,#0xc]
        0x0800121c:    1840        @.      ADDS     r0,r0,r1
        0x0800121e:    9003        ..      STR      r0,[sp,#0xc]
        0x08001220:    9803        ..      LDR      r0,[sp,#0xc]
        0x08001222:    9909        ..      LDR      r1,[sp,#0x24]
        0x08001224:    6889        .h      LDR      r1,[r1,#8]
        0x08001226:    4288        .B      CMP      r0,r1
        0x08001228:    d103        ..      BNE      0x8001232 ; _WriteBlocking + 202
        0x0800122a:    e7ff        ..      B        0x800122c ; _WriteBlocking + 196
        0x0800122c:    2000        .       MOVS     r0,#0
        0x0800122e:    9003        ..      STR      r0,[sp,#0xc]
        0x08001230:    e7ff        ..      B        0x8001232 ; _WriteBlocking + 202
        0x08001232:    f3bf8f5f    .._.    DMB      
        0x08001236:    9803        ..      LDR      r0,[sp,#0xc]
        0x08001238:    9909        ..      LDR      r1,[sp,#0x24]
        0x0800123a:    60c8        .`      STR      r0,[r1,#0xc]
        0x0800123c:    e7ff        ..      B        0x800123e ; _WriteBlocking + 214
        0x0800123e:    9807        ..      LDR      r0,[sp,#0x1c]
        0x08001240:    2800        .(      CMP      r0,#0
        0x08001242:    d19c        ..      BNE      0x800117e ; _WriteBlocking + 22
        0x08001244:    e7ff        ..      B        0x8001246 ; _WriteBlocking + 222
        0x08001246:    9805        ..      LDR      r0,[sp,#0x14]
        0x08001248:    b00a        ..      ADD      sp,sp,#0x28
        0x0800124a:    bd80        ..      POP      {r7,pc}
    _WriteNoCheck
        0x0800124c:    b580        ..      PUSH     {r7,lr}
        0x0800124e:    b088        ..      SUB      sp,sp,#0x20
        0x08001250:    9007        ..      STR      r0,[sp,#0x1c]
        0x08001252:    9106        ..      STR      r1,[sp,#0x18]
        0x08001254:    9205        ..      STR      r2,[sp,#0x14]
        0x08001256:    9807        ..      LDR      r0,[sp,#0x1c]
        0x08001258:    68c0        .h      LDR      r0,[r0,#0xc]
        0x0800125a:    9003        ..      STR      r0,[sp,#0xc]
        0x0800125c:    9807        ..      LDR      r0,[sp,#0x1c]
        0x0800125e:    6880        .h      LDR      r0,[r0,#8]
        0x08001260:    9903        ..      LDR      r1,[sp,#0xc]
        0x08001262:    1a40        @.      SUBS     r0,r0,r1
        0x08001264:    9002        ..      STR      r0,[sp,#8]
        0x08001266:    9802        ..      LDR      r0,[sp,#8]
        0x08001268:    9905        ..      LDR      r1,[sp,#0x14]
        0x0800126a:    4288        .B      CMP      r0,r1
        0x0800126c:    d912        ..      BLS      0x8001294 ; _WriteNoCheck + 72
        0x0800126e:    e7ff        ..      B        0x8001270 ; _WriteNoCheck + 36
        0x08001270:    9807        ..      LDR      r0,[sp,#0x1c]
        0x08001272:    6840        @h      LDR      r0,[r0,#4]
        0x08001274:    9903        ..      LDR      r1,[sp,#0xc]
        0x08001276:    1840        @.      ADDS     r0,r0,r1
        0x08001278:    9001        ..      STR      r0,[sp,#4]
        0x0800127a:    9801        ..      LDR      r0,[sp,#4]
        0x0800127c:    9906        ..      LDR      r1,[sp,#0x18]
        0x0800127e:    9a05        ..      LDR      r2,[sp,#0x14]
        0x08001280:    f7fff8a6    ....    BL       __aeabi_memcpy ; 0x80003d0
        0x08001284:    f3bf8f5f    .._.    DMB      
        0x08001288:    9803        ..      LDR      r0,[sp,#0xc]
        0x0800128a:    9905        ..      LDR      r1,[sp,#0x14]
        0x0800128c:    1840        @.      ADDS     r0,r0,r1
        0x0800128e:    9907        ..      LDR      r1,[sp,#0x1c]
        0x08001290:    60c8        .`      STR      r0,[r1,#0xc]
        0x08001292:    e01f        ..      B        0x80012d4 ; _WriteNoCheck + 136
        0x08001294:    9802        ..      LDR      r0,[sp,#8]
        0x08001296:    9004        ..      STR      r0,[sp,#0x10]
        0x08001298:    9807        ..      LDR      r0,[sp,#0x1c]
        0x0800129a:    6840        @h      LDR      r0,[r0,#4]
        0x0800129c:    9903        ..      LDR      r1,[sp,#0xc]
        0x0800129e:    1840        @.      ADDS     r0,r0,r1
        0x080012a0:    9001        ..      STR      r0,[sp,#4]
        0x080012a2:    9801        ..      LDR      r0,[sp,#4]
        0x080012a4:    9906        ..      LDR      r1,[sp,#0x18]
        0x080012a6:    9a04        ..      LDR      r2,[sp,#0x10]
        0x080012a8:    f7fff892    ....    BL       __aeabi_memcpy ; 0x80003d0
        0x080012ac:    9805        ..      LDR      r0,[sp,#0x14]
        0x080012ae:    9902        ..      LDR      r1,[sp,#8]
        0x080012b0:    1a40        @.      SUBS     r0,r0,r1
        0x080012b2:    9004        ..      STR      r0,[sp,#0x10]
        0x080012b4:    9807        ..      LDR      r0,[sp,#0x1c]
        0x080012b6:    6840        @h      LDR      r0,[r0,#4]
        0x080012b8:    9001        ..      STR      r0,[sp,#4]
        0x080012ba:    9801        ..      LDR      r0,[sp,#4]
        0x080012bc:    9906        ..      LDR      r1,[sp,#0x18]
        0x080012be:    9a02        ..      LDR      r2,[sp,#8]
        0x080012c0:    1889        ..      ADDS     r1,r1,r2
        0x080012c2:    9a04        ..      LDR      r2,[sp,#0x10]
        0x080012c4:    f7fff884    ....    BL       __aeabi_memcpy ; 0x80003d0
        0x080012c8:    f3bf8f5f    .._.    DMB      
        0x080012cc:    9804        ..      LDR      r0,[sp,#0x10]
        0x080012ce:    9907        ..      LDR      r1,[sp,#0x1c]
        0x080012d0:    60c8        .`      STR      r0,[r1,#0xc]
        0x080012d2:    e7ff        ..      B        0x80012d4 ; _WriteNoCheck + 136
        0x080012d4:    b008        ..      ADD      sp,sp,#0x20
        0x080012d6:    bd80        ..      POP      {r7,pc}
    __NVIC_EnableIRQ
        0x080012d8:    b081        ..      SUB      sp,sp,#4
        0x080012da:    9000        ..      STR      r0,[sp,#0]
        0x080012dc:    9800        ..      LDR      r0,[sp,#0]
        0x080012de:    2800        .(      CMP      r0,#0
        0x080012e0:    d40b        ..      BMI      0x80012fa ; __NVIC_EnableIRQ + 34
        0x080012e2:    e7ff        ..      B        0x80012e4 ; __NVIC_EnableIRQ + 12
        0x080012e4:    9900        ..      LDR      r1,[sp,#0]
        0x080012e6:    201f        .       MOVS     r0,#0x1f
        0x080012e8:    460a        .F      MOV      r2,r1
        0x080012ea:    4002        .@      ANDS     r2,r2,r0
        0x080012ec:    2001        .       MOVS     r0,#1
        0x080012ee:    4090        .@      LSLS     r0,r0,r2
        0x080012f0:    0949        I.      LSRS     r1,r1,#5
        0x080012f2:    0089        ..      LSLS     r1,r1,#2
        0x080012f4:    4a02        .J      LDR      r2,[pc,#8] ; [0x8001300] = 0xe000e100
        0x080012f6:    5088        .P      STR      r0,[r1,r2]
        0x080012f8:    e7ff        ..      B        0x80012fa ; __NVIC_EnableIRQ + 34
        0x080012fa:    b001        ..      ADD      sp,sp,#4
        0x080012fc:    4770        pG      BX       lr
        0x080012fe:    46c0        .F      MOV      r8,r8
    $d.4
    __arm_cp.2_0
        0x08001300:    e000e100    ....    DCD    3758153984
    $t.1
    __NVIC_SetPriority
        0x08001304:    b570        p.      PUSH     {r4-r6,lr}
        0x08001306:    b082        ..      SUB      sp,sp,#8
        0x08001308:    9001        ..      STR      r0,[sp,#4]
        0x0800130a:    9100        ..      STR      r1,[sp,#0]
        0x0800130c:    9801        ..      LDR      r0,[sp,#4]
        0x0800130e:    2800        .(      CMP      r0,#0
        0x08001310:    d414        ..      BMI      0x800133c ; __NVIC_SetPriority + 56
        0x08001312:    e7ff        ..      B        0x8001314 ; __NVIC_SetPriority + 16
        0x08001314:    9801        ..      LDR      r0,[sp,#4]
        0x08001316:    2103        .!      MOVS     r1,#3
        0x08001318:    43cb        .C      MVNS     r3,r1
        0x0800131a:    4018        .@      ANDS     r0,r0,r3
        0x0800131c:    4a16        .J      LDR      r2,[pc,#88] ; [0x8001378] = 0xe000e400
        0x0800131e:    5880        .X      LDR      r0,[r0,r2]
        0x08001320:    9901        ..      LDR      r1,[sp,#4]
        0x08001322:    078c        ..      LSLS     r4,r1,#30
        0x08001324:    0ee5        ..      LSRS     r5,r4,#27
        0x08001326:    24ff        .$      MOVS     r4,#0xff
        0x08001328:    40ac        .@      LSLS     r4,r4,r5
        0x0800132a:    43a0        .C      BICS     r0,r0,r4
        0x0800132c:    9c00        ..      LDR      r4,[sp,#0]
        0x0800132e:    01a4        ..      LSLS     r4,r4,#6
        0x08001330:    b2e4        ..      UXTB     r4,r4
        0x08001332:    40ac        .@      LSLS     r4,r4,r5
        0x08001334:    4320         C      ORRS     r0,r0,r4
        0x08001336:    4019        .@      ANDS     r1,r1,r3
        0x08001338:    5088        .P      STR      r0,[r1,r2]
        0x0800133a:    e018        ..      B        0x800136e ; __NVIC_SetPriority + 106
        0x0800133c:    9801        ..      LDR      r0,[sp,#4]
        0x0800133e:    240f        .$      MOVS     r4,#0xf
        0x08001340:    4020         @      ANDS     r0,r0,r4
        0x08001342:    3808        .8      SUBS     r0,r0,#8
        0x08001344:    2103        .!      MOVS     r1,#3
        0x08001346:    43cb        .C      MVNS     r3,r1
        0x08001348:    4018        .@      ANDS     r0,r0,r3
        0x0800134a:    4a0a        .J      LDR      r2,[pc,#40] ; [0x8001374] = 0xe000ed1c
        0x0800134c:    5880        .X      LDR      r0,[r0,r2]
        0x0800134e:    9901        ..      LDR      r1,[sp,#4]
        0x08001350:    078d        ..      LSLS     r5,r1,#30
        0x08001352:    0eee        ..      LSRS     r6,r5,#27
        0x08001354:    25ff        .%      MOVS     r5,#0xff
        0x08001356:    40b5        .@      LSLS     r5,r5,r6
        0x08001358:    43a8        .C      BICS     r0,r0,r5
        0x0800135a:    9d00        ..      LDR      r5,[sp,#0]
        0x0800135c:    01ad        ..      LSLS     r5,r5,#6
        0x0800135e:    b2ed        ..      UXTB     r5,r5
        0x08001360:    40b5        .@      LSLS     r5,r5,r6
        0x08001362:    4328        (C      ORRS     r0,r0,r5
        0x08001364:    4021        !@      ANDS     r1,r1,r4
        0x08001366:    3908        .9      SUBS     r1,r1,#8
        0x08001368:    4019        .@      ANDS     r1,r1,r3
        0x0800136a:    5088        .P      STR      r0,[r1,r2]
        0x0800136c:    e7ff        ..      B        0x800136e ; __NVIC_SetPriority + 106
        0x0800136e:    b002        ..      ADD      sp,sp,#8
        0x08001370:    bd70        p.      POP      {r4-r6,pc}
        0x08001372:    46c0        .F      MOV      r8,r8
    $d.2
    __arm_cp.1_0
        0x08001374:    e000ed1c    ....    DCD    3758157084
    __arm_cp.1_1
        0x08001378:    e000e400    ....    DCD    3758154752
    $t.12
    _add_timer
        0x0800137c:    b580        ..      PUSH     {r7,lr}
        0x0800137e:    b082        ..      SUB      sp,sp,#8
        0x08001380:    9001        ..      STR      r0,[sp,#4]
        0x08001382:    9100        ..      STR      r1,[sp,#0]
        0x08001384:    9800        ..      LDR      r0,[sp,#0]
        0x08001386:    f000fc47    ..G.    BL       list_delete_item ; 0x8001c18
        0x0800138a:    9801        ..      LDR      r0,[sp,#4]
        0x0800138c:    2821        !(      CMP      r0,#0x21
        0x0800138e:    d306        ..      BCC      0x800139e ; _add_timer + 34
        0x08001390:    e7ff        ..      B        0x8001392 ; _add_timer + 22
        0x08001392:    9900        ..      LDR      r1,[sp,#0]
        0x08001394:    4829        )H      LDR      r0,[pc,#164] ; [0x800143c] = 0x20000778
        0x08001396:    3010        .0      ADDS     r0,r0,#0x10
        0x08001398:    f000fc16    ....    BL       list_add_tail ; 0x8001bc8
        0x0800139c:    e00b        ..      B        0x80013b6 ; _add_timer + 58
        0x0800139e:    4827        'H      LDR      r0,[pc,#156] ; [0x800143c] = 0x20000778
        0x080013a0:    6801        .h      LDR      r1,[r0,#0]
        0x080013a2:    9a01        ..      LDR      r2,[sp,#4]
        0x080013a4:    1889        ..      ADDS     r1,r1,r2
        0x080013a6:    06c9        ..      LSLS     r1,r1,#27
        0x080013a8:    0e09        ..      LSRS     r1,r1,#24
        0x080013aa:    1840        @.      ADDS     r0,r0,r1
        0x080013ac:    3020         0      ADDS     r0,r0,#0x20
        0x080013ae:    9900        ..      LDR      r1,[sp,#0]
        0x080013b0:    f000fc0a    ....    BL       list_add_tail ; 0x8001bc8
        0x080013b4:    e7ff        ..      B        0x80013b6 ; _add_timer + 58
        0x080013b6:    b002        ..      ADD      sp,sp,#8
        0x080013b8:    bd80        ..      POP      {r7,pc}
        0x080013ba:    46c0        .F      MOV      r8,r8
    _stimer_base_init
        0x080013bc:    b580        ..      PUSH     {r7,lr}
        0x080013be:    b08a        ..      SUB      sp,sp,#0x28
        0x080013c0:    9009        ..      STR      r0,[sp,#0x24]
        0x080013c2:    9108        ..      STR      r1,[sp,#0x20]
        0x080013c4:    f2407000    @..p    MOVW     r0,#0x700
        0x080013c8:    f000fc9e    ....    BL       rcu_periph_clock_enable ; 0x8001d08
        0x080013cc:    2001        .       MOVS     r0,#1
        0x080013ce:    9002        ..      STR      r0,[sp,#8]
        0x080013d0:    0780        ..      LSLS     r0,r0,#30
        0x080013d2:    9001        ..      STR      r0,[sp,#4]
        0x080013d4:    f000feca    ....    BL       timer_deinit ; 0x800216c
        0x080013d8:    9801        ..      LDR      r0,[sp,#4]
        0x080013da:    a904        ..      ADD      r1,sp,#0x10
        0x080013dc:    2200        ."      MOVS     r2,#0
        0x080013de:    9203        ..      STR      r2,[sp,#0xc]
        0x080013e0:    804a        J.      STRH     r2,[r1,#2]
        0x080013e2:    818a        ..      STRH     r2,[r1,#0xc]
        0x080013e4:    808a        ..      STRH     r2,[r1,#4]
        0x080013e6:    9b09        ..      LDR      r3,[sp,#0x24]
        0x080013e8:    220a        ."      MOVS     r2,#0xa
        0x080013ea:    435a        ZC      MULS     r2,r3,r2
        0x080013ec:    1e52        R.      SUBS     r2,r2,#1
        0x080013ee:    9206        ..      STR      r2,[sp,#0x18]
        0x080013f0:    4a0a        .J      LDR      r2,[pc,#40] ; [0x800141c] = 0x18ff
        0x080013f2:    800a        ..      STRH     r2,[r1,#0]
        0x080013f4:    f000ff32    ..2.    BL       timer_init ; 0x800225c
        0x080013f8:    9801        ..      LDR      r0,[sp,#4]
        0x080013fa:    9902        ..      LDR      r1,[sp,#8]
        0x080013fc:    f000ff25    ..%.    BL       timer_flag_clear ; 0x800224a
        0x08001400:    9801        ..      LDR      r0,[sp,#4]
        0x08001402:    9902        ..      LDR      r1,[sp,#8]
        0x08001404:    f000ff70    ..p.    BL       timer_interrupt_enable ; 0x80022e8
        0x08001408:    9903        ..      LDR      r1,[sp,#0xc]
        0x0800140a:    2015        .       MOVS     r0,#0x15
        0x0800140c:    f000fc4e    ..N.    BL       nvic_irq_enable ; 0x8001cac
        0x08001410:    9808        ..      LDR      r0,[sp,#0x20]
        0x08001412:    4903        .I      LDR      r1,[pc,#12] ; [0x8001420] = 0x20000898
        0x08001414:    6008        .`      STR      r0,[r1,#0]
        0x08001416:    b00a        ..      ADD      sp,sp,#0x28
        0x08001418:    bd80        ..      POP      {r7,pc}
        0x0800141a:    46c0        .F      MOV      r8,r8
    $d.5
    __arm_cp.2_0
        0x0800141c:    000018ff    ....    DCD    6399
    __arm_cp.2_1
        0x08001420:    20000898    ...     DCD    536873112
    $t.6
    _stimer_base_start
        0x08001424:    b580        ..      PUSH     {r7,lr}
        0x08001426:    2001        .       MOVS     r0,#1
        0x08001428:    0780        ..      LSLS     r0,r0,#30
        0x0800142a:    f000ff05    ....    BL       timer_enable ; 0x8002238
        0x0800142e:    bd80        ..      POP      {r7,pc}
    _timer_uptate
        0x08001430:    4902        .I      LDR      r1,[pc,#8] ; [0x800143c] = 0x20000778
        0x08001432:    6848        Hh      LDR      r0,[r1,#4]
        0x08001434:    1c40        @.      ADDS     r0,r0,#1
        0x08001436:    6048        H`      STR      r0,[r1,#4]
        0x08001438:    4770        pG      BX       lr
        0x0800143a:    46c0        .F      MOV      r8,r8
    $d.9
    __arm_cp.4_0
        0x0800143c:    20000778    x..     DCD    536872824
    $t.0
    app_led_task
        0x08001440:    b580        ..      PUSH     {r7,lr}
        0x08001442:    b082        ..      SUB      sp,sp,#8
        0x08001444:    4806        .H      LDR      r0,[pc,#24] ; [0x8001460] = 0x80023c4
        0x08001446:    4907        .I      LDR      r1,[pc,#28] ; [0x8001464] = 0x20000000
        0x08001448:    9101        ..      STR      r1,[sp,#4]
        0x0800144a:    2201        ."      MOVS     r2,#1
        0x0800144c:    9200        ..      STR      r2,[sp,#0]
        0x0800144e:    f000f80b    ....    BL       dal_write ; 0x8001468
        0x08001452:    9a00        ..      LDR      r2,[sp,#0]
        0x08001454:    9901        ..      LDR      r1,[sp,#4]
        0x08001456:    7808        .x      LDRB     r0,[r1,#0]
        0x08001458:    4050        P@      EORS     r0,r0,r2
        0x0800145a:    7008        .p      STRB     r0,[r1,#0]
        0x0800145c:    b002        ..      ADD      sp,sp,#8
        0x0800145e:    bd80        ..      POP      {r7,pc}
    $d.1
    __arm_cp.0_0
        0x08001460:    080023c4    .#..    DCD    134226884
    __arm_cp.0_1
        0x08001464:    20000000    ...     DCD    536870912
    $t.3
    dal_write
        0x08001468:    b580        ..      PUSH     {r7,lr}
        0x0800146a:    b086        ..      SUB      sp,sp,#0x18
        0x0800146c:    9004        ..      STR      r0,[sp,#0x10]
        0x0800146e:    9103        ..      STR      r1,[sp,#0xc]
        0x08001470:    9202        ..      STR      r2,[sp,#8]
        0x08001472:    9804        ..      LDR      r0,[sp,#0x10]
        0x08001474:    f000f846    ..F.    BL       dml_find_device ; 0x8001504
        0x08001478:    9001        ..      STR      r0,[sp,#4]
        0x0800147a:    9801        ..      LDR      r0,[sp,#4]
        0x0800147c:    b920         .      CBNZ     r0,0x8001488 ; dal_write + 32
        0x0800147e:    e7ff        ..      B        0x8001480 ; dal_write + 24
        0x08001480:    2002        .       MOVS     r0,#2
        0x08001482:    43c0        .C      MVNS     r0,r0
        0x08001484:    9005        ..      STR      r0,[sp,#0x14]
        0x08001486:    e008        ..      B        0x800149a ; dal_write + 50
        0x08001488:    9801        ..      LDR      r0,[sp,#4]
        0x0800148a:    6942        Bi      LDR      r2,[r0,#0x14]
        0x0800148c:    9803        ..      LDR      r0,[sp,#0xc]
        0x0800148e:    9902        ..      LDR      r1,[sp,#8]
        0x08001490:    4790        .G      BLX      r2
        0x08001492:    9000        ..      STR      r0,[sp,#0]
        0x08001494:    9800        ..      LDR      r0,[sp,#0]
        0x08001496:    9005        ..      STR      r0,[sp,#0x14]
        0x08001498:    e7ff        ..      B        0x800149a ; dal_write + 50
        0x0800149a:    9805        ..      LDR      r0,[sp,#0x14]
        0x0800149c:    b006        ..      ADD      sp,sp,#0x18
        0x0800149e:    bd80        ..      POP      {r7,pc}
    defer_task_free
        0x080014a0:    b081        ..      SUB      sp,sp,#4
        0x080014a2:    9000        ..      STR      r0,[sp,#0]
        0x080014a4:    9800        ..      LDR      r0,[sp,#0]
        0x080014a6:    b158        X.      CBZ      r0,0x80014c0 ; defer_task_free + 32
        0x080014a8:    e7ff        ..      B        0x80014aa ; defer_task_free + 10
        0x080014aa:    9900        ..      LDR      r1,[sp,#0]
        0x080014ac:    2000        .       MOVS     r0,#0
        0x080014ae:    6008        .`      STR      r0,[r1,#0]
        0x080014b0:    9a00        ..      LDR      r2,[sp,#0]
        0x080014b2:    2101        .!      MOVS     r1,#1
        0x080014b4:    6191        .a      STR      r1,[r2,#0x18]
        0x080014b6:    9900        ..      LDR      r1,[sp,#0]
        0x080014b8:    6088        .`      STR      r0,[r1,#8]
        0x080014ba:    9900        ..      LDR      r1,[sp,#0]
        0x080014bc:    6048        H`      STR      r0,[r1,#4]
        0x080014be:    e7ff        ..      B        0x80014c0 ; defer_task_free + 32
        0x080014c0:    b001        ..      ADD      sp,sp,#4
        0x080014c2:    4770        pG      BX       lr
    delay_decrement
        0x080014c4:    4804        .H      LDR      r0,[pc,#16] ; [0x80014d8] = 0x20000760
        0x080014c6:    6800        .h      LDR      r0,[r0,#0]
        0x080014c8:    b128        (.      CBZ      r0,0x80014d6 ; delay_decrement + 18
        0x080014ca:    e7ff        ..      B        0x80014cc ; delay_decrement + 8
        0x080014cc:    4902        .I      LDR      r1,[pc,#8] ; [0x80014d8] = 0x20000760
        0x080014ce:    6808        .h      LDR      r0,[r1,#0]
        0x080014d0:    1e40        @.      SUBS     r0,r0,#1
        0x080014d2:    6008        .`      STR      r0,[r1,#0]
        0x080014d4:    e7ff        ..      B        0x80014d6 ; delay_decrement + 18
        0x080014d6:    4770        pG      BX       lr
    $d.9
    __arm_cp.4_0
        0x080014d8:    20000760    `..     DCD    536872800
    $t.0
    dev_table_init
        0x080014dc:    b580        ..      PUSH     {r7,lr}
        0x080014de:    483a        :H      LDR      r0,[pc,#232] ; [0x80015c8] = 0x20000774
        0x080014e0:    7800        .x      LDRB     r0,[r0,#0]
        0x080014e2:    07c0        ..      LSLS     r0,r0,#31
        0x080014e4:    b108        ..      CBZ      r0,0x80014ea ; dev_table_init + 14
        0x080014e6:    e7ff        ..      B        0x80014e8 ; dev_table_init + 12
        0x080014e8:    e00b        ..      B        0x8001502 ; dev_table_init + 38
        0x080014ea:    4838        8H      LDR      r0,[pc,#224] ; [0x80015cc] = 0x20000764
        0x080014ec:    21c0        .!      MOVS     r1,#0xc0
        0x080014ee:    2300        .#      MOVS     r3,#0
        0x080014f0:    461a        .F      MOV      r2,r3
        0x080014f2:    f000faaf    ....    BL       init_hash_table ; 0x8001a54
        0x080014f6:    b920         .      CBNZ     r0,0x8001502 ; dev_table_init + 38
        0x080014f8:    e7ff        ..      B        0x80014fa ; dev_table_init + 30
        0x080014fa:    4933        3I      LDR      r1,[pc,#204] ; [0x80015c8] = 0x20000774
        0x080014fc:    2001        .       MOVS     r0,#1
        0x080014fe:    7008        .p      STRB     r0,[r1,#0]
        0x08001500:    e7ff        ..      B        0x8001502 ; dev_table_init + 38
        0x08001502:    bd80        ..      POP      {r7,pc}
    dml_find_device
        0x08001504:    b580        ..      PUSH     {r7,lr}
        0x08001506:    b086        ..      SUB      sp,sp,#0x18
        0x08001508:    9004        ..      STR      r0,[sp,#0x10]
        0x0800150a:    482f        /H      LDR      r0,[pc,#188] ; [0x80015c8] = 0x20000774
        0x0800150c:    7800        .x      LDRB     r0,[r0,#0]
        0x0800150e:    07c0        ..      LSLS     r0,r0,#31
        0x08001510:    b118        ..      CBZ      r0,0x800151a ; dml_find_device + 22
        0x08001512:    e7ff        ..      B        0x8001514 ; dml_find_device + 16
        0x08001514:    9804        ..      LDR      r0,[sp,#0x10]
        0x08001516:    b918        ..      CBNZ     r0,0x8001520 ; dml_find_device + 28
        0x08001518:    e7ff        ..      B        0x800151a ; dml_find_device + 22
        0x0800151a:    2000        .       MOVS     r0,#0
        0x0800151c:    9005        ..      STR      r0,[sp,#0x14]
        0x0800151e:    e011        ..      B        0x8001544 ; dml_find_device + 64
        0x08001520:    9904        ..      LDR      r1,[sp,#0x10]
        0x08001522:    482a        *H      LDR      r0,[pc,#168] ; [0x80015cc] = 0x20000764
        0x08001524:    aa03        ..      ADD      r2,sp,#0xc
        0x08001526:    f000f97f    ....    BL       hash_find ; 0x8001828
        0x0800152a:    9002        ..      STR      r0,[sp,#8]
        0x0800152c:    9803        ..      LDR      r0,[sp,#0xc]
        0x0800152e:    b918        ..      CBNZ     r0,0x8001538 ; dml_find_device + 52
        0x08001530:    e7ff        ..      B        0x8001532 ; dml_find_device + 46
        0x08001532:    9802        ..      LDR      r0,[sp,#8]
        0x08001534:    9001        ..      STR      r0,[sp,#4]
        0x08001536:    e002        ..      B        0x800153e ; dml_find_device + 58
        0x08001538:    2000        .       MOVS     r0,#0
        0x0800153a:    9001        ..      STR      r0,[sp,#4]
        0x0800153c:    e7ff        ..      B        0x800153e ; dml_find_device + 58
        0x0800153e:    9801        ..      LDR      r0,[sp,#4]
        0x08001540:    9005        ..      STR      r0,[sp,#0x14]
        0x08001542:    e7ff        ..      B        0x8001544 ; dml_find_device + 64
        0x08001544:    9805        ..      LDR      r0,[sp,#0x14]
        0x08001546:    b006        ..      ADD      sp,sp,#0x18
        0x08001548:    bd80        ..      POP      {r7,pc}
        0x0800154a:    46c0        .F      MOV      r8,r8
    dml_init
        0x0800154c:    b580        ..      PUSH     {r7,lr}
        0x0800154e:    f7ffffc5    ....    BL       dev_table_init ; 0x80014dc
        0x08001552:    f000fbd1    ....    BL       platform_stimer_init ; 0x8001cf8
        0x08001556:    f000fb05    ....    BL       led_red_init ; 0x8001b64
        0x0800155a:    4903        .I      LDR      r1,[pc,#12] ; [0x8001568] = 0x800237b
        0x0800155c:    4a03        .J      LDR      r2,[pc,#12] ; [0x800156c] = 0x80023a1
        0x0800155e:    2000        .       MOVS     r0,#0
        0x08001560:    232b        +#      MOVS     r3,#0x2b
        0x08001562:    f7fff96d    ..m.    BL       SEGGER_RTT_printf ; 0x8000840
        0x08001566:    bd80        ..      POP      {r7,pc}
    $d.1
    __arm_cp.0_0
        0x08001568:    0800237b    {#..    DCD    134226811
    __arm_cp.0_1
        0x0800156c:    080023a1    .#..    DCD    134226849
    $t.4
    dml_register_device
        0x08001570:    b580        ..      PUSH     {r7,lr}
        0x08001572:    b082        ..      SUB      sp,sp,#8
        0x08001574:    9000        ..      STR      r0,[sp,#0]
        0x08001576:    4814        .H      LDR      r0,[pc,#80] ; [0x80015c8] = 0x20000774
        0x08001578:    7800        .x      LDRB     r0,[r0,#0]
        0x0800157a:    07c0        ..      LSLS     r0,r0,#31
        0x0800157c:    b138        8.      CBZ      r0,0x800158e ; dml_register_device + 30
        0x0800157e:    e7ff        ..      B        0x8001580 ; dml_register_device + 16
        0x08001580:    9800        ..      LDR      r0,[sp,#0]
        0x08001582:    b120         .      CBZ      r0,0x800158e ; dml_register_device + 30
        0x08001584:    e7ff        ..      B        0x8001586 ; dml_register_device + 22
        0x08001586:    9800        ..      LDR      r0,[sp,#0]
        0x08001588:    6800        .h      LDR      r0,[r0,#0]
        0x0800158a:    b920         .      CBNZ     r0,0x8001596 ; dml_register_device + 38
        0x0800158c:    e7ff        ..      B        0x800158e ; dml_register_device + 30
        0x0800158e:    a901        ..      ADD      r1,sp,#4
        0x08001590:    2000        .       MOVS     r0,#0
        0x08001592:    7008        .p      STRB     r0,[r1,#0]
        0x08001594:    e013        ..      B        0x80015be ; dml_register_device + 78
        0x08001596:    9800        ..      LDR      r0,[sp,#0]
        0x08001598:    6800        .h      LDR      r0,[r0,#0]
        0x0800159a:    f7ffffb3    ....    BL       dml_find_device ; 0x8001504
        0x0800159e:    b120         .      CBZ      r0,0x80015aa ; dml_register_device + 58
        0x080015a0:    e7ff        ..      B        0x80015a2 ; dml_register_device + 50
        0x080015a2:    a901        ..      ADD      r1,sp,#4
        0x080015a4:    2000        .       MOVS     r0,#0
        0x080015a6:    7008        .p      STRB     r0,[r1,#0]
        0x080015a8:    e009        ..      B        0x80015be ; dml_register_device + 78
        0x080015aa:    9a00        ..      LDR      r2,[sp,#0]
        0x080015ac:    6811        .h      LDR      r1,[r2,#0]
        0x080015ae:    4807        .H      LDR      r0,[pc,#28] ; [0x80015cc] = 0x20000764
        0x080015b0:    f000f9ae    ....    BL       hash_insert ; 0x8001910
        0x080015b4:    4241        AB      RSBS     r1,r0,#0
        0x080015b6:    4148        HA      ADCS     r0,r0,r1
        0x080015b8:    a901        ..      ADD      r1,sp,#4
        0x080015ba:    7008        .p      STRB     r0,[r1,#0]
        0x080015bc:    e7ff        ..      B        0x80015be ; dml_register_device + 78
        0x080015be:    a801        ..      ADD      r0,sp,#4
        0x080015c0:    7800        .x      LDRB     r0,[r0,#0]
        0x080015c2:    b002        ..      ADD      sp,sp,#8
        0x080015c4:    bd80        ..      POP      {r7,pc}
        0x080015c6:    46c0        .F      MOV      r8,r8
    $d.5
    __arm_cp.2_0
        0x080015c8:    20000774    t..     DCD    536872820
    __arm_cp.2_1
        0x080015cc:    20000764    d..     DCD    536872804
    $t.6
    gpio_bit_write
        0x080015d0:    b083        ..      SUB      sp,sp,#0xc
        0x080015d2:    9002        ..      STR      r0,[sp,#8]
        0x080015d4:    9101        ..      STR      r1,[sp,#4]
        0x080015d6:    9200        ..      STR      r2,[sp,#0]
        0x080015d8:    9800        ..      LDR      r0,[sp,#0]
        0x080015da:    b120         .      CBZ      r0,0x80015e6 ; gpio_bit_write + 22
        0x080015dc:    e7ff        ..      B        0x80015de ; gpio_bit_write + 14
        0x080015de:    9801        ..      LDR      r0,[sp,#4]
        0x080015e0:    9902        ..      LDR      r1,[sp,#8]
        0x080015e2:    6188        .a      STR      r0,[r1,#0x18]
        0x080015e4:    e003        ..      B        0x80015ee ; gpio_bit_write + 30
        0x080015e6:    9801        ..      LDR      r0,[sp,#4]
        0x080015e8:    9902        ..      LDR      r1,[sp,#8]
        0x080015ea:    6288        .b      STR      r0,[r1,#0x28]
        0x080015ec:    e7ff        ..      B        0x80015ee ; gpio_bit_write + 30
        0x080015ee:    b003        ..      ADD      sp,sp,#0xc
        0x080015f0:    4770        pG      BX       lr
        0x080015f2:    0000        ..      MOVS     r0,r0
    gpio_deinit
        0x080015f4:    b580        ..      PUSH     {r7,lr}
        0x080015f6:    b088        ..      SUB      sp,sp,#0x20
        0x080015f8:    9007        ..      STR      r0,[sp,#0x1c]
        0x080015fa:    9807        ..      LDR      r0,[sp,#0x1c]
        0x080015fc:    9006        ..      STR      r0,[sp,#0x18]
        0x080015fe:    2109        .!      MOVS     r1,#9
        0x08001600:    06c9        ..      LSLS     r1,r1,#27
        0x08001602:    4288        .B      CMP      r0,r1
        0x08001604:    d014        ..      BEQ      0x8001630 ; gpio_deinit + 60
        0x08001606:    e7ff        ..      B        0x8001608 ; gpio_deinit + 20
        0x08001608:    9806        ..      LDR      r0,[sp,#0x18]
        0x0800160a:    491f        .I      LDR      r1,[pc,#124] ; [0x8001688] = 0x48000400
        0x0800160c:    4288        .B      CMP      r0,r1
        0x0800160e:    d017        ..      BEQ      0x8001640 ; gpio_deinit + 76
        0x08001610:    e7ff        ..      B        0x8001612 ; gpio_deinit + 30
        0x08001612:    9806        ..      LDR      r0,[sp,#0x18]
        0x08001614:    491d        .I      LDR      r1,[pc,#116] ; [0x800168c] = 0x48000800
        0x08001616:    4288        .B      CMP      r0,r1
        0x08001618:    d01a        ..      BEQ      0x8001650 ; gpio_deinit + 92
        0x0800161a:    e7ff        ..      B        0x800161c ; gpio_deinit + 40
        0x0800161c:    9806        ..      LDR      r0,[sp,#0x18]
        0x0800161e:    491c        .I      LDR      r1,[pc,#112] ; [0x8001690] = 0x48000c00
        0x08001620:    4288        .B      CMP      r0,r1
        0x08001622:    d01d        ..      BEQ      0x8001660 ; gpio_deinit + 108
        0x08001624:    e7ff        ..      B        0x8001626 ; gpio_deinit + 50
        0x08001626:    9806        ..      LDR      r0,[sp,#0x18]
        0x08001628:    491a        .I      LDR      r1,[pc,#104] ; [0x8001694] = 0x48001400
        0x0800162a:    4288        .B      CMP      r0,r1
        0x0800162c:    d020         .      BEQ      0x8001670 ; gpio_deinit + 124
        0x0800162e:    e027        '.      B        0x8001680 ; gpio_deinit + 140
        0x08001630:    481c        .H      LDR      r0,[pc,#112] ; [0x80016a4] = 0xa11
        0x08001632:    9005        ..      STR      r0,[sp,#0x14]
        0x08001634:    f000fb88    ....    BL       rcu_periph_reset_enable ; 0x8001d48
        0x08001638:    9805        ..      LDR      r0,[sp,#0x14]
        0x0800163a:    f000fb75    ..u.    BL       rcu_periph_reset_disable ; 0x8001d28
        0x0800163e:    e020         .      B        0x8001682 ; gpio_deinit + 142
        0x08001640:    4817        .H      LDR      r0,[pc,#92] ; [0x80016a0] = 0xa12
        0x08001642:    9004        ..      STR      r0,[sp,#0x10]
        0x08001644:    f000fb80    ....    BL       rcu_periph_reset_enable ; 0x8001d48
        0x08001648:    9804        ..      LDR      r0,[sp,#0x10]
        0x0800164a:    f000fb6d    ..m.    BL       rcu_periph_reset_disable ; 0x8001d28
        0x0800164e:    e018        ..      B        0x8001682 ; gpio_deinit + 142
        0x08001650:    4812        .H      LDR      r0,[pc,#72] ; [0x800169c] = 0xa13
        0x08001652:    9003        ..      STR      r0,[sp,#0xc]
        0x08001654:    f000fb78    ..x.    BL       rcu_periph_reset_enable ; 0x8001d48
        0x08001658:    9803        ..      LDR      r0,[sp,#0xc]
        0x0800165a:    f000fb65    ..e.    BL       rcu_periph_reset_disable ; 0x8001d28
        0x0800165e:    e010        ..      B        0x8001682 ; gpio_deinit + 142
        0x08001660:    480e        .H      LDR      r0,[pc,#56] ; [0x800169c] = 0xa13
        0x08001662:    9002        ..      STR      r0,[sp,#8]
        0x08001664:    f000fb70    ..p.    BL       rcu_periph_reset_enable ; 0x8001d48
        0x08001668:    9802        ..      LDR      r0,[sp,#8]
        0x0800166a:    f000fb5d    ..].    BL       rcu_periph_reset_disable ; 0x8001d28
        0x0800166e:    e008        ..      B        0x8001682 ; gpio_deinit + 142
        0x08001670:    4809        .H      LDR      r0,[pc,#36] ; [0x8001698] = 0xa16
        0x08001672:    9001        ..      STR      r0,[sp,#4]
        0x08001674:    f000fb68    ..h.    BL       rcu_periph_reset_enable ; 0x8001d48
        0x08001678:    9801        ..      LDR      r0,[sp,#4]
        0x0800167a:    f000fb55    ..U.    BL       rcu_periph_reset_disable ; 0x8001d28
        0x0800167e:    e000        ..      B        0x8001682 ; gpio_deinit + 142
        0x08001680:    e7ff        ..      B        0x8001682 ; gpio_deinit + 142
        0x08001682:    b008        ..      ADD      sp,sp,#0x20
        0x08001684:    bd80        ..      POP      {r7,pc}
        0x08001686:    46c0        .F      MOV      r8,r8
    $d.1
    __arm_cp.0_0
        0x08001688:    48000400    ...H    DCD    1207960576
    __arm_cp.0_1
        0x0800168c:    48000800    ...H    DCD    1207961600
    __arm_cp.0_2
        0x08001690:    48000c00    ...H    DCD    1207962624
    __arm_cp.0_3
        0x08001694:    48001400    ...H    DCD    1207964672
    __arm_cp.0_4
        0x08001698:    00000a16    ....    DCD    2582
    __arm_cp.0_5
        0x0800169c:    00000a13    ....    DCD    2579
    __arm_cp.0_6
        0x080016a0:    00000a12    ....    DCD    2578
    __arm_cp.0_7
        0x080016a4:    00000a11    ....    DCD    2577
    $t.8
    gpio_input_bit_get
        0x080016a8:    b083        ..      SUB      sp,sp,#0xc
        0x080016aa:    9001        ..      STR      r0,[sp,#4]
        0x080016ac:    9100        ..      STR      r1,[sp,#0]
        0x080016ae:    9801        ..      LDR      r0,[sp,#4]
        0x080016b0:    6900        .i      LDR      r0,[r0,#0x10]
        0x080016b2:    9900        ..      LDR      r1,[sp,#0]
        0x080016b4:    4208        .B      TST      r0,r1
        0x080016b6:    d003        ..      BEQ      0x80016c0 ; gpio_input_bit_get + 24
        0x080016b8:    e7ff        ..      B        0x80016ba ; gpio_input_bit_get + 18
        0x080016ba:    2001        .       MOVS     r0,#1
        0x080016bc:    9002        ..      STR      r0,[sp,#8]
        0x080016be:    e002        ..      B        0x80016c6 ; gpio_input_bit_get + 30
        0x080016c0:    2000        .       MOVS     r0,#0
        0x080016c2:    9002        ..      STR      r0,[sp,#8]
        0x080016c4:    e7ff        ..      B        0x80016c6 ; gpio_input_bit_get + 30
        0x080016c6:    9802        ..      LDR      r0,[sp,#8]
        0x080016c8:    b003        ..      ADD      sp,sp,#0xc
        0x080016ca:    4770        pG      BX       lr
    gpio_mode_set
        0x080016cc:    b087        ..      SUB      sp,sp,#0x1c
        0x080016ce:    9006        ..      STR      r0,[sp,#0x18]
        0x080016d0:    9105        ..      STR      r1,[sp,#0x14]
        0x080016d2:    9204        ..      STR      r2,[sp,#0x10]
        0x080016d4:    9303        ..      STR      r3,[sp,#0xc]
        0x080016d6:    9806        ..      LDR      r0,[sp,#0x18]
        0x080016d8:    6800        .h      LDR      r0,[r0,#0]
        0x080016da:    9001        ..      STR      r0,[sp,#4]
        0x080016dc:    9806        ..      LDR      r0,[sp,#0x18]
        0x080016de:    68c0        .h      LDR      r0,[r0,#0xc]
        0x080016e0:    9000        ..      STR      r0,[sp,#0]
        0x080016e2:    a902        ..      ADD      r1,sp,#8
        0x080016e4:    2000        .       MOVS     r0,#0
        0x080016e6:    8008        ..      STRH     r0,[r1,#0]
        0x080016e8:    e7ff        ..      B        0x80016ea ; gpio_mode_set + 30
        0x080016ea:    a802        ..      ADD      r0,sp,#8
        0x080016ec:    8800        ..      LDRH     r0,[r0,#0]
        0x080016ee:    280f        .(      CMP      r0,#0xf
        0x080016f0:    d82b        +.      BHI      0x800174a ; gpio_mode_set + 126
        0x080016f2:    e7ff        ..      B        0x80016f4 ; gpio_mode_set + 40
        0x080016f4:    a802        ..      ADD      r0,sp,#8
        0x080016f6:    8801        ..      LDRH     r1,[r0,#0]
        0x080016f8:    9803        ..      LDR      r0,[sp,#0xc]
        0x080016fa:    40c8        .@      LSRS     r0,r0,r1
        0x080016fc:    07c0        ..      LSLS     r0,r0,#31
        0x080016fe:    b1f0        ..      CBZ      r0,0x800173e ; gpio_mode_set + 114
        0x08001700:    e7ff        ..      B        0x8001702 ; gpio_mode_set + 54
        0x08001702:    a802        ..      ADD      r0,sp,#8
        0x08001704:    8801        ..      LDRH     r1,[r0,#0]
        0x08001706:    0049        I.      LSLS     r1,r1,#1
        0x08001708:    2203        ."      MOVS     r2,#3
        0x0800170a:    4613        .F      MOV      r3,r2
        0x0800170c:    408b        .@      LSLS     r3,r3,r1
        0x0800170e:    9901        ..      LDR      r1,[sp,#4]
        0x08001710:    4399        .C      BICS     r1,r1,r3
        0x08001712:    9101        ..      STR      r1,[sp,#4]
        0x08001714:    9b05        ..      LDR      r3,[sp,#0x14]
        0x08001716:    8801        ..      LDRH     r1,[r0,#0]
        0x08001718:    0049        I.      LSLS     r1,r1,#1
        0x0800171a:    408b        .@      LSLS     r3,r3,r1
        0x0800171c:    9901        ..      LDR      r1,[sp,#4]
        0x0800171e:    4319        .C      ORRS     r1,r1,r3
        0x08001720:    9101        ..      STR      r1,[sp,#4]
        0x08001722:    8801        ..      LDRH     r1,[r0,#0]
        0x08001724:    0049        I.      LSLS     r1,r1,#1
        0x08001726:    408a        .@      LSLS     r2,r2,r1
        0x08001728:    9900        ..      LDR      r1,[sp,#0]
        0x0800172a:    4391        .C      BICS     r1,r1,r2
        0x0800172c:    9100        ..      STR      r1,[sp,#0]
        0x0800172e:    9904        ..      LDR      r1,[sp,#0x10]
        0x08001730:    8800        ..      LDRH     r0,[r0,#0]
        0x08001732:    0040        @.      LSLS     r0,r0,#1
        0x08001734:    4081        .@      LSLS     r1,r1,r0
        0x08001736:    9800        ..      LDR      r0,[sp,#0]
        0x08001738:    4308        .C      ORRS     r0,r0,r1
        0x0800173a:    9000        ..      STR      r0,[sp,#0]
        0x0800173c:    e7ff        ..      B        0x800173e ; gpio_mode_set + 114
        0x0800173e:    e7ff        ..      B        0x8001740 ; gpio_mode_set + 116
        0x08001740:    9802        ..      LDR      r0,[sp,#8]
        0x08001742:    1c40        @.      ADDS     r0,r0,#1
        0x08001744:    a902        ..      ADD      r1,sp,#8
        0x08001746:    8008        ..      STRH     r0,[r1,#0]
        0x08001748:    e7cf        ..      B        0x80016ea ; gpio_mode_set + 30
        0x0800174a:    9801        ..      LDR      r0,[sp,#4]
        0x0800174c:    9906        ..      LDR      r1,[sp,#0x18]
        0x0800174e:    6008        .`      STR      r0,[r1,#0]
        0x08001750:    9800        ..      LDR      r0,[sp,#0]
        0x08001752:    9906        ..      LDR      r1,[sp,#0x18]
        0x08001754:    60c8        .`      STR      r0,[r1,#0xc]
        0x08001756:    b007        ..      ADD      sp,sp,#0x1c
        0x08001758:    4770        pG      BX       lr
    gpio_output_options_set
        0x0800175a:    b510        ..      PUSH     {r4,lr}
        0x0800175c:    b086        ..      SUB      sp,sp,#0x18
        0x0800175e:    9005        ..      STR      r0,[sp,#0x14]
        0x08001760:    a804        ..      ADD      r0,sp,#0x10
        0x08001762:    7001        .p      STRB     r1,[r0,#0]
        0x08001764:    9203        ..      STR      r2,[sp,#0xc]
        0x08001766:    9302        ..      STR      r3,[sp,#8]
        0x08001768:    7800        .x      LDRB     r0,[r0,#0]
        0x0800176a:    2801        .(      CMP      r0,#1
        0x0800176c:    d106        ..      BNE      0x800177c ; gpio_output_options_set + 34
        0x0800176e:    e7ff        ..      B        0x8001770 ; gpio_output_options_set + 22
        0x08001770:    9a02        ..      LDR      r2,[sp,#8]
        0x08001772:    9905        ..      LDR      r1,[sp,#0x14]
        0x08001774:    6848        Hh      LDR      r0,[r1,#4]
        0x08001776:    4310        .C      ORRS     r0,r0,r2
        0x08001778:    6048        H`      STR      r0,[r1,#4]
        0x0800177a:    e005        ..      B        0x8001788 ; gpio_output_options_set + 46
        0x0800177c:    9a02        ..      LDR      r2,[sp,#8]
        0x0800177e:    9905        ..      LDR      r1,[sp,#0x14]
        0x08001780:    6848        Hh      LDR      r0,[r1,#4]
        0x08001782:    4390        .C      BICS     r0,r0,r2
        0x08001784:    6048        H`      STR      r0,[r1,#4]
        0x08001786:    e7ff        ..      B        0x8001788 ; gpio_output_options_set + 46
        0x08001788:    9805        ..      LDR      r0,[sp,#0x14]
        0x0800178a:    6880        .h      LDR      r0,[r0,#8]
        0x0800178c:    9000        ..      STR      r0,[sp,#0]
        0x0800178e:    a901        ..      ADD      r1,sp,#4
        0x08001790:    2000        .       MOVS     r0,#0
        0x08001792:    8008        ..      STRH     r0,[r1,#0]
        0x08001794:    e7ff        ..      B        0x8001796 ; gpio_output_options_set + 60
        0x08001796:    a801        ..      ADD      r0,sp,#4
        0x08001798:    8800        ..      LDRH     r0,[r0,#0]
        0x0800179a:    280f        .(      CMP      r0,#0xf
        0x0800179c:    d81d        ..      BHI      0x80017da ; gpio_output_options_set + 128
        0x0800179e:    e7ff        ..      B        0x80017a0 ; gpio_output_options_set + 70
        0x080017a0:    a801        ..      ADD      r0,sp,#4
        0x080017a2:    8801        ..      LDRH     r1,[r0,#0]
        0x080017a4:    9802        ..      LDR      r0,[sp,#8]
        0x080017a6:    40c8        .@      LSRS     r0,r0,r1
        0x080017a8:    07c0        ..      LSLS     r0,r0,#31
        0x080017aa:    b180        ..      CBZ      r0,0x80017ce ; gpio_output_options_set + 116
        0x080017ac:    e7ff        ..      B        0x80017ae ; gpio_output_options_set + 84
        0x080017ae:    a801        ..      ADD      r0,sp,#4
        0x080017b0:    8801        ..      LDRH     r1,[r0,#0]
        0x080017b2:    0049        I.      LSLS     r1,r1,#1
        0x080017b4:    2203        ."      MOVS     r2,#3
        0x080017b6:    408a        .@      LSLS     r2,r2,r1
        0x080017b8:    9900        ..      LDR      r1,[sp,#0]
        0x080017ba:    4391        .C      BICS     r1,r1,r2
        0x080017bc:    9100        ..      STR      r1,[sp,#0]
        0x080017be:    9903        ..      LDR      r1,[sp,#0xc]
        0x080017c0:    8800        ..      LDRH     r0,[r0,#0]
        0x080017c2:    0040        @.      LSLS     r0,r0,#1
        0x080017c4:    4081        .@      LSLS     r1,r1,r0
        0x080017c6:    9800        ..      LDR      r0,[sp,#0]
        0x080017c8:    4308        .C      ORRS     r0,r0,r1
        0x080017ca:    9000        ..      STR      r0,[sp,#0]
        0x080017cc:    e7ff        ..      B        0x80017ce ; gpio_output_options_set + 116
        0x080017ce:    e7ff        ..      B        0x80017d0 ; gpio_output_options_set + 118
        0x080017d0:    9801        ..      LDR      r0,[sp,#4]
        0x080017d2:    1c40        @.      ADDS     r0,r0,#1
        0x080017d4:    a901        ..      ADD      r1,sp,#4
        0x080017d6:    8008        ..      STRH     r0,[r1,#0]
        0x080017d8:    e7dd        ..      B        0x8001796 ; gpio_output_options_set + 60
        0x080017da:    9800        ..      LDR      r0,[sp,#0]
        0x080017dc:    9905        ..      LDR      r1,[sp,#0x14]
        0x080017de:    6088        .`      STR      r0,[r1,#8]
        0x080017e0:    b006        ..      ADD      sp,sp,#0x18
        0x080017e2:    bd10        ..      POP      {r4,pc}
    hash
        0x080017e4:    b083        ..      SUB      sp,sp,#0xc
        0x080017e6:    9002        ..      STR      r0,[sp,#8]
        0x080017e8:    9101        ..      STR      r1,[sp,#4]
        0x080017ea:    480d        .H      LDR      r0,[pc,#52] ; [0x8001820] = 0x811c9dc5
        0x080017ec:    9000        ..      STR      r0,[sp,#0]
        0x080017ee:    e7ff        ..      B        0x80017f0 ; hash + 12
        0x080017f0:    9802        ..      LDR      r0,[sp,#8]
        0x080017f2:    7800        .x      LDRB     r0,[r0,#0]
        0x080017f4:    b160        `.      CBZ      r0,0x8001810 ; hash + 44
        0x080017f6:    e7ff        ..      B        0x80017f8 ; hash + 20
        0x080017f8:    9802        ..      LDR      r0,[sp,#8]
        0x080017fa:    1c41        A.      ADDS     r1,r0,#1
        0x080017fc:    9102        ..      STR      r1,[sp,#8]
        0x080017fe:    7801        .x      LDRB     r1,[r0,#0]
        0x08001800:    9800        ..      LDR      r0,[sp,#0]
        0x08001802:    4048        H@      EORS     r0,r0,r1
        0x08001804:    9000        ..      STR      r0,[sp,#0]
        0x08001806:    9900        ..      LDR      r1,[sp,#0]
        0x08001808:    4806        .H      LDR      r0,[pc,#24] ; [0x8001824] = 0x1000193
        0x0800180a:    4348        HC      MULS     r0,r1,r0
        0x0800180c:    9000        ..      STR      r0,[sp,#0]
        0x0800180e:    e7ef        ..      B        0x80017f0 ; hash + 12
        0x08001810:    9800        ..      LDR      r0,[sp,#0]
        0x08001812:    9901        ..      LDR      r1,[sp,#4]
        0x08001814:    fbb0f2f1    ....    UDIV     r2,r0,r1
        0x08001818:    4351        QC      MULS     r1,r2,r1
        0x0800181a:    1a40        @.      SUBS     r0,r0,r1
        0x0800181c:    b003        ..      ADD      sp,sp,#0xc
        0x0800181e:    4770        pG      BX       lr
    $d.3
    __arm_cp.2_0
        0x08001820:    811c9dc5    ....    DCD    2166136261
    __arm_cp.2_1
        0x08001824:    01000193    ....    DCD    16777619
    $t.4
    hash_find
        0x08001828:    b580        ..      PUSH     {r7,lr}
        0x0800182a:    b08a        ..      SUB      sp,sp,#0x28
        0x0800182c:    9008        ..      STR      r0,[sp,#0x20]
        0x0800182e:    9107        ..      STR      r1,[sp,#0x1c]
        0x08001830:    9206        ..      STR      r2,[sp,#0x18]
        0x08001832:    9808        ..      LDR      r0,[sp,#0x20]
        0x08001834:    b118        ..      CBZ      r0,0x800183e ; hash_find + 22
        0x08001836:    e7ff        ..      B        0x8001838 ; hash_find + 16
        0x08001838:    9807        ..      LDR      r0,[sp,#0x1c]
        0x0800183a:    b950        P.      CBNZ     r0,0x8001852 ; hash_find + 42
        0x0800183c:    e7ff        ..      B        0x800183e ; hash_find + 22
        0x0800183e:    9806        ..      LDR      r0,[sp,#0x18]
        0x08001840:    b120         .      CBZ      r0,0x800184c ; hash_find + 36
        0x08001842:    e7ff        ..      B        0x8001844 ; hash_find + 28
        0x08001844:    9906        ..      LDR      r1,[sp,#0x18]
        0x08001846:    2002        .       MOVS     r0,#2
        0x08001848:    6008        .`      STR      r0,[r1,#0]
        0x0800184a:    e7ff        ..      B        0x800184c ; hash_find + 36
        0x0800184c:    2000        .       MOVS     r0,#0
        0x0800184e:    9009        ..      STR      r0,[sp,#0x24]
        0x08001850:    e05b        [.      B        0x800190a ; hash_find + 226
        0x08001852:    9807        ..      LDR      r0,[sp,#0x1c]
        0x08001854:    9908        ..      LDR      r1,[sp,#0x20]
        0x08001856:    6849        Ih      LDR      r1,[r1,#4]
        0x08001858:    f7ffffc4    ....    BL       hash ; 0x80017e4
        0x0800185c:    9005        ..      STR      r0,[sp,#0x14]
        0x0800185e:    9808        ..      LDR      r0,[sp,#0x20]
        0x08001860:    6880        .h      LDR      r0,[r0,#8]
        0x08001862:    b120         .      CBZ      r0,0x800186e ; hash_find + 70
        0x08001864:    e7ff        ..      B        0x8001866 ; hash_find + 62
        0x08001866:    9808        ..      LDR      r0,[sp,#0x20]
        0x08001868:    6880        .h      LDR      r0,[r0,#8]
        0x0800186a:    4780        .G      BLX      r0
        0x0800186c:    e7ff        ..      B        0x800186e ; hash_find + 70
        0x0800186e:    9808        ..      LDR      r0,[sp,#0x20]
        0x08001870:    6800        .h      LDR      r0,[r0,#0]
        0x08001872:    9905        ..      LDR      r1,[sp,#0x14]
        0x08001874:    00c9        ..      LSLS     r1,r1,#3
        0x08001876:    1840        @.      ADDS     r0,r0,r1
        0x08001878:    6840        @h      LDR      r0,[r0,#4]
        0x0800187a:    9004        ..      STR      r0,[sp,#0x10]
        0x0800187c:    9804        ..      LDR      r0,[sp,#0x10]
        0x0800187e:    6840        @h      LDR      r0,[r0,#4]
        0x08001880:    9003        ..      STR      r0,[sp,#0xc]
        0x08001882:    e7ff        ..      B        0x8001884 ; hash_find + 92
        0x08001884:    9804        ..      LDR      r0,[sp,#0x10]
        0x08001886:    9908        ..      LDR      r1,[sp,#0x20]
        0x08001888:    6809        .h      LDR      r1,[r1,#0]
        0x0800188a:    9a05        ..      LDR      r2,[sp,#0x14]
        0x0800188c:    00d2        ..      LSLS     r2,r2,#3
        0x0800188e:    1889        ..      ADDS     r1,r1,r2
        0x08001890:    4288        .B      CMP      r0,r1
        0x08001892:    d028        (.      BEQ      0x80018e6 ; hash_find + 190
        0x08001894:    e7ff        ..      B        0x8001896 ; hash_find + 110
        0x08001896:    9804        ..      LDR      r0,[sp,#0x10]
        0x08001898:    9001        ..      STR      r0,[sp,#4]
        0x0800189a:    9801        ..      LDR      r0,[sp,#4]
        0x0800189c:    3808        .8      SUBS     r0,r0,#8
        0x0800189e:    9000        ..      STR      r0,[sp,#0]
        0x080018a0:    9800        ..      LDR      r0,[sp,#0]
        0x080018a2:    9002        ..      STR      r0,[sp,#8]
        0x080018a4:    9802        ..      LDR      r0,[sp,#8]
        0x080018a6:    6800        .h      LDR      r0,[r0,#0]
        0x080018a8:    9907        ..      LDR      r1,[sp,#0x1c]
        0x080018aa:    f7fefdf3    ....    BL       strcmp ; 0x8000494
        0x080018ae:    b998        ..      CBNZ     r0,0x80018d8 ; hash_find + 176
        0x080018b0:    e7ff        ..      B        0x80018b2 ; hash_find + 138
        0x080018b2:    9808        ..      LDR      r0,[sp,#0x20]
        0x080018b4:    68c0        .h      LDR      r0,[r0,#0xc]
        0x080018b6:    b120         .      CBZ      r0,0x80018c2 ; hash_find + 154
        0x080018b8:    e7ff        ..      B        0x80018ba ; hash_find + 146
        0x080018ba:    9808        ..      LDR      r0,[sp,#0x20]
        0x080018bc:    68c0        .h      LDR      r0,[r0,#0xc]
        0x080018be:    4780        .G      BLX      r0
        0x080018c0:    e7ff        ..      B        0x80018c2 ; hash_find + 154
        0x080018c2:    9806        ..      LDR      r0,[sp,#0x18]
        0x080018c4:    b120         .      CBZ      r0,0x80018d0 ; hash_find + 168
        0x080018c6:    e7ff        ..      B        0x80018c8 ; hash_find + 160
        0x080018c8:    9906        ..      LDR      r1,[sp,#0x18]
        0x080018ca:    2000        .       MOVS     r0,#0
        0x080018cc:    6008        .`      STR      r0,[r1,#0]
        0x080018ce:    e7ff        ..      B        0x80018d0 ; hash_find + 168
        0x080018d0:    9802        ..      LDR      r0,[sp,#8]
        0x080018d2:    6840        @h      LDR      r0,[r0,#4]
        0x080018d4:    9009        ..      STR      r0,[sp,#0x24]
        0x080018d6:    e018        ..      B        0x800190a ; hash_find + 226
        0x080018d8:    e7ff        ..      B        0x80018da ; hash_find + 178
        0x080018da:    9803        ..      LDR      r0,[sp,#0xc]
        0x080018dc:    9004        ..      STR      r0,[sp,#0x10]
        0x080018de:    9804        ..      LDR      r0,[sp,#0x10]
        0x080018e0:    6840        @h      LDR      r0,[r0,#4]
        0x080018e2:    9003        ..      STR      r0,[sp,#0xc]
        0x080018e4:    e7ce        ..      B        0x8001884 ; hash_find + 92
        0x080018e6:    9808        ..      LDR      r0,[sp,#0x20]
        0x080018e8:    68c0        .h      LDR      r0,[r0,#0xc]
        0x080018ea:    b120         .      CBZ      r0,0x80018f6 ; hash_find + 206
        0x080018ec:    e7ff        ..      B        0x80018ee ; hash_find + 198
        0x080018ee:    9808        ..      LDR      r0,[sp,#0x20]
        0x080018f0:    68c0        .h      LDR      r0,[r0,#0xc]
        0x080018f2:    4780        .G      BLX      r0
        0x080018f4:    e7ff        ..      B        0x80018f6 ; hash_find + 206
        0x080018f6:    9806        ..      LDR      r0,[sp,#0x18]
        0x080018f8:    b120         .      CBZ      r0,0x8001904 ; hash_find + 220
        0x080018fa:    e7ff        ..      B        0x80018fc ; hash_find + 212
        0x080018fc:    9906        ..      LDR      r1,[sp,#0x18]
        0x080018fe:    2001        .       MOVS     r0,#1
        0x08001900:    6008        .`      STR      r0,[r1,#0]
        0x08001902:    e7ff        ..      B        0x8001904 ; hash_find + 220
        0x08001904:    2000        .       MOVS     r0,#0
        0x08001906:    9009        ..      STR      r0,[sp,#0x24]
        0x08001908:    e7ff        ..      B        0x800190a ; hash_find + 226
        0x0800190a:    9809        ..      LDR      r0,[sp,#0x24]
        0x0800190c:    b00a        ..      ADD      sp,sp,#0x28
        0x0800190e:    bd80        ..      POP      {r7,pc}
    hash_insert
        0x08001910:    b580        ..      PUSH     {r7,lr}
        0x08001912:    b08c        ..      SUB      sp,sp,#0x30
        0x08001914:    900a        ..      STR      r0,[sp,#0x28]
        0x08001916:    9109        ..      STR      r1,[sp,#0x24]
        0x08001918:    9208        ..      STR      r2,[sp,#0x20]
        0x0800191a:    980a        ..      LDR      r0,[sp,#0x28]
        0x0800191c:    b118        ..      CBZ      r0,0x8001926 ; hash_insert + 22
        0x0800191e:    e7ff        ..      B        0x8001920 ; hash_insert + 16
        0x08001920:    9809        ..      LDR      r0,[sp,#0x24]
        0x08001922:    b918        ..      CBNZ     r0,0x800192c ; hash_insert + 28
        0x08001924:    e7ff        ..      B        0x8001926 ; hash_insert + 22
        0x08001926:    2002        .       MOVS     r0,#2
        0x08001928:    900b        ..      STR      r0,[sp,#0x2c]
        0x0800192a:    e090        ..      B        0x8001a4e ; hash_insert + 318
        0x0800192c:    9809        ..      LDR      r0,[sp,#0x24]
        0x0800192e:    990a        ..      LDR      r1,[sp,#0x28]
        0x08001930:    6849        Ih      LDR      r1,[r1,#4]
        0x08001932:    f7ffff57    ..W.    BL       hash ; 0x80017e4
        0x08001936:    9007        ..      STR      r0,[sp,#0x1c]
        0x08001938:    980a        ..      LDR      r0,[sp,#0x28]
        0x0800193a:    6880        .h      LDR      r0,[r0,#8]
        0x0800193c:    b120         .      CBZ      r0,0x8001948 ; hash_insert + 56
        0x0800193e:    e7ff        ..      B        0x8001940 ; hash_insert + 48
        0x08001940:    980a        ..      LDR      r0,[sp,#0x28]
        0x08001942:    6880        .h      LDR      r0,[r0,#8]
        0x08001944:    4780        .G      BLX      r0
        0x08001946:    e7ff        ..      B        0x8001948 ; hash_insert + 56
        0x08001948:    980a        ..      LDR      r0,[sp,#0x28]
        0x0800194a:    6800        .h      LDR      r0,[r0,#0]
        0x0800194c:    9907        ..      LDR      r1,[sp,#0x1c]
        0x0800194e:    00c9        ..      LSLS     r1,r1,#3
        0x08001950:    1840        @.      ADDS     r0,r0,r1
        0x08001952:    6840        @h      LDR      r0,[r0,#4]
        0x08001954:    9006        ..      STR      r0,[sp,#0x18]
        0x08001956:    9806        ..      LDR      r0,[sp,#0x18]
        0x08001958:    6840        @h      LDR      r0,[r0,#4]
        0x0800195a:    9005        ..      STR      r0,[sp,#0x14]
        0x0800195c:    e7ff        ..      B        0x800195e ; hash_insert + 78
        0x0800195e:    9806        ..      LDR      r0,[sp,#0x18]
        0x08001960:    990a        ..      LDR      r1,[sp,#0x28]
        0x08001962:    6809        .h      LDR      r1,[r1,#0]
        0x08001964:    9a07        ..      LDR      r2,[sp,#0x1c]
        0x08001966:    00d2        ..      LSLS     r2,r2,#3
        0x08001968:    1889        ..      ADDS     r1,r1,r2
        0x0800196a:    4288        .B      CMP      r0,r1
        0x0800196c:    d023        #.      BEQ      0x80019b6 ; hash_insert + 166
        0x0800196e:    e7ff        ..      B        0x8001970 ; hash_insert + 96
        0x08001970:    9806        ..      LDR      r0,[sp,#0x18]
        0x08001972:    9003        ..      STR      r0,[sp,#0xc]
        0x08001974:    9803        ..      LDR      r0,[sp,#0xc]
        0x08001976:    3808        .8      SUBS     r0,r0,#8
        0x08001978:    9002        ..      STR      r0,[sp,#8]
        0x0800197a:    9802        ..      LDR      r0,[sp,#8]
        0x0800197c:    9004        ..      STR      r0,[sp,#0x10]
        0x0800197e:    9804        ..      LDR      r0,[sp,#0x10]
        0x08001980:    6800        .h      LDR      r0,[r0,#0]
        0x08001982:    9909        ..      LDR      r1,[sp,#0x24]
        0x08001984:    f7fefd86    ....    BL       strcmp ; 0x8000494
        0x08001988:    b970        p.      CBNZ     r0,0x80019a8 ; hash_insert + 152
        0x0800198a:    e7ff        ..      B        0x800198c ; hash_insert + 124
        0x0800198c:    9808        ..      LDR      r0,[sp,#0x20]
        0x0800198e:    9904        ..      LDR      r1,[sp,#0x10]
        0x08001990:    6048        H`      STR      r0,[r1,#4]
        0x08001992:    980a        ..      LDR      r0,[sp,#0x28]
        0x08001994:    68c0        .h      LDR      r0,[r0,#0xc]
        0x08001996:    b120         .      CBZ      r0,0x80019a2 ; hash_insert + 146
        0x08001998:    e7ff        ..      B        0x800199a ; hash_insert + 138
        0x0800199a:    980a        ..      LDR      r0,[sp,#0x28]
        0x0800199c:    68c0        .h      LDR      r0,[r0,#0xc]
        0x0800199e:    4780        .G      BLX      r0
        0x080019a0:    e7ff        ..      B        0x80019a2 ; hash_insert + 146
        0x080019a2:    2000        .       MOVS     r0,#0
        0x080019a4:    900b        ..      STR      r0,[sp,#0x2c]
        0x080019a6:    e052        R.      B        0x8001a4e ; hash_insert + 318
        0x080019a8:    e7ff        ..      B        0x80019aa ; hash_insert + 154
        0x080019aa:    9805        ..      LDR      r0,[sp,#0x14]
        0x080019ac:    9006        ..      STR      r0,[sp,#0x18]
        0x080019ae:    9806        ..      LDR      r0,[sp,#0x18]
        0x080019b0:    6840        @h      LDR      r0,[r0,#4]
        0x080019b2:    9005        ..      STR      r0,[sp,#0x14]
        0x080019b4:    e7d3        ..      B        0x800195e ; hash_insert + 78
        0x080019b6:    2010        .       MOVS     r0,#0x10
        0x080019b8:    f7fefc6a    ..j.    BL       malloc ; 0x8000290
        0x080019bc:    9001        ..      STR      r0,[sp,#4]
        0x080019be:    9801        ..      LDR      r0,[sp,#4]
        0x080019c0:    3008        .0      ADDS     r0,r0,#8
        0x080019c2:    f000f954    ..T.    BL       list_init ; 0x8001c6e
        0x080019c6:    9801        ..      LDR      r0,[sp,#4]
        0x080019c8:    b958        X.      CBNZ     r0,0x80019e2 ; hash_insert + 210
        0x080019ca:    e7ff        ..      B        0x80019cc ; hash_insert + 188
        0x080019cc:    980a        ..      LDR      r0,[sp,#0x28]
        0x080019ce:    68c0        .h      LDR      r0,[r0,#0xc]
        0x080019d0:    b120         .      CBZ      r0,0x80019dc ; hash_insert + 204
        0x080019d2:    e7ff        ..      B        0x80019d4 ; hash_insert + 196
        0x080019d4:    980a        ..      LDR      r0,[sp,#0x28]
        0x080019d6:    68c0        .h      LDR      r0,[r0,#0xc]
        0x080019d8:    4780        .G      BLX      r0
        0x080019da:    e7ff        ..      B        0x80019dc ; hash_insert + 204
        0x080019dc:    2002        .       MOVS     r0,#2
        0x080019de:    900b        ..      STR      r0,[sp,#0x2c]
        0x080019e0:    e035        5.      B        0x8001a4e ; hash_insert + 318
        0x080019e2:    9809        ..      LDR      r0,[sp,#0x24]
        0x080019e4:    f7fefcd2    ....    BL       strlen ; 0x800038c
        0x080019e8:    1c40        @.      ADDS     r0,r0,#1
        0x080019ea:    f7fefc51    ..Q.    BL       malloc ; 0x8000290
        0x080019ee:    9901        ..      LDR      r1,[sp,#4]
        0x080019f0:    6008        .`      STR      r0,[r1,#0]
        0x080019f2:    9801        ..      LDR      r0,[sp,#4]
        0x080019f4:    6800        .h      LDR      r0,[r0,#0]
        0x080019f6:    b970        p.      CBNZ     r0,0x8001a16 ; hash_insert + 262
        0x080019f8:    e7ff        ..      B        0x80019fa ; hash_insert + 234
        0x080019fa:    9801        ..      LDR      r0,[sp,#4]
        0x080019fc:    f7fefc79    ..y.    BL       free ; 0x80002f2
        0x08001a00:    980a        ..      LDR      r0,[sp,#0x28]
        0x08001a02:    68c0        .h      LDR      r0,[r0,#0xc]
        0x08001a04:    b120         .      CBZ      r0,0x8001a10 ; hash_insert + 256
        0x08001a06:    e7ff        ..      B        0x8001a08 ; hash_insert + 248
        0x08001a08:    980a        ..      LDR      r0,[sp,#0x28]
        0x08001a0a:    68c0        .h      LDR      r0,[r0,#0xc]
        0x08001a0c:    4780        .G      BLX      r0
        0x08001a0e:    e7ff        ..      B        0x8001a10 ; hash_insert + 256
        0x08001a10:    2002        .       MOVS     r0,#2
        0x08001a12:    900b        ..      STR      r0,[sp,#0x2c]
        0x08001a14:    e01b        ..      B        0x8001a4e ; hash_insert + 318
        0x08001a16:    9801        ..      LDR      r0,[sp,#4]
        0x08001a18:    6800        .h      LDR      r0,[r0,#0]
        0x08001a1a:    9909        ..      LDR      r1,[sp,#0x24]
        0x08001a1c:    f7fefc90    ....    BL       strcpy ; 0x8000340
        0x08001a20:    9808        ..      LDR      r0,[sp,#0x20]
        0x08001a22:    9901        ..      LDR      r1,[sp,#4]
        0x08001a24:    6048        H`      STR      r0,[r1,#4]
        0x08001a26:    980a        ..      LDR      r0,[sp,#0x28]
        0x08001a28:    6800        .h      LDR      r0,[r0,#0]
        0x08001a2a:    9907        ..      LDR      r1,[sp,#0x1c]
        0x08001a2c:    00c9        ..      LSLS     r1,r1,#3
        0x08001a2e:    1840        @.      ADDS     r0,r0,r1
        0x08001a30:    9901        ..      LDR      r1,[sp,#4]
        0x08001a32:    3108        .1      ADDS     r1,r1,#8
        0x08001a34:    f000f8c8    ....    BL       list_add_tail ; 0x8001bc8
        0x08001a38:    980a        ..      LDR      r0,[sp,#0x28]
        0x08001a3a:    68c0        .h      LDR      r0,[r0,#0xc]
        0x08001a3c:    b120         .      CBZ      r0,0x8001a48 ; hash_insert + 312
        0x08001a3e:    e7ff        ..      B        0x8001a40 ; hash_insert + 304
        0x08001a40:    980a        ..      LDR      r0,[sp,#0x28]
        0x08001a42:    68c0        .h      LDR      r0,[r0,#0xc]
        0x08001a44:    4780        .G      BLX      r0
        0x08001a46:    e7ff        ..      B        0x8001a48 ; hash_insert + 312
        0x08001a48:    2000        .       MOVS     r0,#0
        0x08001a4a:    900b        ..      STR      r0,[sp,#0x2c]
        0x08001a4c:    e7ff        ..      B        0x8001a4e ; hash_insert + 318
        0x08001a4e:    980b        ..      LDR      r0,[sp,#0x2c]
        0x08001a50:    b00c        ..      ADD      sp,sp,#0x30
        0x08001a52:    bd80        ..      POP      {r7,pc}
    init_hash_table
        0x08001a54:    b580        ..      PUSH     {r7,lr}
        0x08001a56:    b086        ..      SUB      sp,sp,#0x18
        0x08001a58:    9004        ..      STR      r0,[sp,#0x10]
        0x08001a5a:    9103        ..      STR      r1,[sp,#0xc]
        0x08001a5c:    9202        ..      STR      r2,[sp,#8]
        0x08001a5e:    9301        ..      STR      r3,[sp,#4]
        0x08001a60:    9804        ..      LDR      r0,[sp,#0x10]
        0x08001a62:    b918        ..      CBNZ     r0,0x8001a6c ; init_hash_table + 24
        0x08001a64:    e7ff        ..      B        0x8001a66 ; init_hash_table + 18
        0x08001a66:    2002        .       MOVS     r0,#2
        0x08001a68:    9005        ..      STR      r0,[sp,#0x14]
        0x08001a6a:    e02c        ,.      B        0x8001ac6 ; init_hash_table + 114
        0x08001a6c:    9803        ..      LDR      r0,[sp,#0xc]
        0x08001a6e:    00c0        ..      LSLS     r0,r0,#3
        0x08001a70:    f7fefc0e    ....    BL       malloc ; 0x8000290
        0x08001a74:    9904        ..      LDR      r1,[sp,#0x10]
        0x08001a76:    6008        .`      STR      r0,[r1,#0]
        0x08001a78:    9804        ..      LDR      r0,[sp,#0x10]
        0x08001a7a:    6800        .h      LDR      r0,[r0,#0]
        0x08001a7c:    b918        ..      CBNZ     r0,0x8001a86 ; init_hash_table + 50
        0x08001a7e:    e7ff        ..      B        0x8001a80 ; init_hash_table + 44
        0x08001a80:    2002        .       MOVS     r0,#2
        0x08001a82:    9005        ..      STR      r0,[sp,#0x14]
        0x08001a84:    e01f        ..      B        0x8001ac6 ; init_hash_table + 114
        0x08001a86:    2000        .       MOVS     r0,#0
        0x08001a88:    9000        ..      STR      r0,[sp,#0]
        0x08001a8a:    e7ff        ..      B        0x8001a8c ; init_hash_table + 56
        0x08001a8c:    9800        ..      LDR      r0,[sp,#0]
        0x08001a8e:    9903        ..      LDR      r1,[sp,#0xc]
        0x08001a90:    4288        .B      CMP      r0,r1
        0x08001a92:    d20c        ..      BCS      0x8001aae ; init_hash_table + 90
        0x08001a94:    e7ff        ..      B        0x8001a96 ; init_hash_table + 66
        0x08001a96:    9804        ..      LDR      r0,[sp,#0x10]
        0x08001a98:    6800        .h      LDR      r0,[r0,#0]
        0x08001a9a:    9900        ..      LDR      r1,[sp,#0]
        0x08001a9c:    00c9        ..      LSLS     r1,r1,#3
        0x08001a9e:    1840        @.      ADDS     r0,r0,r1
        0x08001aa0:    f000f8e5    ....    BL       list_init ; 0x8001c6e
        0x08001aa4:    e7ff        ..      B        0x8001aa6 ; init_hash_table + 82
        0x08001aa6:    9800        ..      LDR      r0,[sp,#0]
        0x08001aa8:    1c40        @.      ADDS     r0,r0,#1
        0x08001aaa:    9000        ..      STR      r0,[sp,#0]
        0x08001aac:    e7ee        ..      B        0x8001a8c ; init_hash_table + 56
        0x08001aae:    9803        ..      LDR      r0,[sp,#0xc]
        0x08001ab0:    9904        ..      LDR      r1,[sp,#0x10]
        0x08001ab2:    6048        H`      STR      r0,[r1,#4]
        0x08001ab4:    9802        ..      LDR      r0,[sp,#8]
        0x08001ab6:    9904        ..      LDR      r1,[sp,#0x10]
        0x08001ab8:    6088        .`      STR      r0,[r1,#8]
        0x08001aba:    9801        ..      LDR      r0,[sp,#4]
        0x08001abc:    9904        ..      LDR      r1,[sp,#0x10]
        0x08001abe:    60c8        .`      STR      r0,[r1,#0xc]
        0x08001ac0:    2000        .       MOVS     r0,#0
        0x08001ac2:    9005        ..      STR      r0,[sp,#0x14]
        0x08001ac4:    e7ff        ..      B        0x8001ac6 ; init_hash_table + 114
        0x08001ac6:    9805        ..      LDR      r0,[sp,#0x14]
        0x08001ac8:    b006        ..      ADD      sp,sp,#0x18
        0x08001aca:    bd80        ..      POP      {r7,pc}
    is_head_valid
        0x08001acc:    b082        ..      SUB      sp,sp,#8
        0x08001ace:    9001        ..      STR      r0,[sp,#4]
        0x08001ad0:    9901        ..      LDR      r1,[sp,#4]
        0x08001ad2:    2000        .       MOVS     r0,#0
        0x08001ad4:    9000        ..      STR      r0,[sp,#0]
        0x08001ad6:    b161        a.      CBZ      r1,0x8001af2 ; is_head_valid + 38
        0x08001ad8:    e7ff        ..      B        0x8001ada ; is_head_valid + 14
        0x08001ada:    9801        ..      LDR      r0,[sp,#4]
        0x08001adc:    6841        Ah      LDR      r1,[r0,#4]
        0x08001ade:    2000        .       MOVS     r0,#0
        0x08001ae0:    9000        ..      STR      r0,[sp,#0]
        0x08001ae2:    b131        1.      CBZ      r1,0x8001af2 ; is_head_valid + 38
        0x08001ae4:    e7ff        ..      B        0x8001ae6 ; is_head_valid + 26
        0x08001ae6:    9801        ..      LDR      r0,[sp,#4]
        0x08001ae8:    6800        .h      LDR      r0,[r0,#0]
        0x08001aea:    1e41        A.      SUBS     r1,r0,#1
        0x08001aec:    4188        .A      SBCS     r0,r0,r1
        0x08001aee:    9000        ..      STR      r0,[sp,#0]
        0x08001af0:    e7ff        ..      B        0x8001af2 ; is_head_valid + 38
        0x08001af2:    9800        ..      LDR      r0,[sp,#0]
        0x08001af4:    2101        .!      MOVS     r1,#1
        0x08001af6:    4008        .@      ANDS     r0,r0,r1
        0x08001af8:    b002        ..      ADD      sp,sp,#8
        0x08001afa:    4770        pG      BX       lr
    is_task_valid
        0x08001afc:    b082        ..      SUB      sp,sp,#8
        0x08001afe:    9001        ..      STR      r0,[sp,#4]
        0x08001b00:    9901        ..      LDR      r1,[sp,#4]
        0x08001b02:    2000        .       MOVS     r0,#0
        0x08001b04:    9000        ..      STR      r0,[sp,#0]
        0x08001b06:    b161        a.      CBZ      r1,0x8001b22 ; is_task_valid + 38
        0x08001b08:    e7ff        ..      B        0x8001b0a ; is_task_valid + 14
        0x08001b0a:    9801        ..      LDR      r0,[sp,#4]
        0x08001b0c:    6801        .h      LDR      r1,[r0,#0]
        0x08001b0e:    2000        .       MOVS     r0,#0
        0x08001b10:    9000        ..      STR      r0,[sp,#0]
        0x08001b12:    b131        1.      CBZ      r1,0x8001b22 ; is_task_valid + 38
        0x08001b14:    e7ff        ..      B        0x8001b16 ; is_task_valid + 26
        0x08001b16:    9801        ..      LDR      r0,[sp,#4]
        0x08001b18:    6840        @h      LDR      r0,[r0,#4]
        0x08001b1a:    1e41        A.      SUBS     r1,r0,#1
        0x08001b1c:    4188        .A      SBCS     r0,r0,r1
        0x08001b1e:    9000        ..      STR      r0,[sp,#0]
        0x08001b20:    e7ff        ..      B        0x8001b22 ; is_task_valid + 38
        0x08001b22:    9800        ..      LDR      r0,[sp,#0]
        0x08001b24:    2101        .!      MOVS     r1,#1
        0x08001b26:    4008        .@      ANDS     r0,r0,r1
        0x08001b28:    b002        ..      ADD      sp,sp,#8
        0x08001b2a:    4770        pG      BX       lr
    is_timer_run
        0x08001b2c:    48d0        .H      LDR      r0,[pc,#832] ; [0x8001e70] = 0x20000778
        0x08001b2e:    6880        .h      LDR      r0,[r0,#8]
        0x08001b30:    1e40        @.      SUBS     r0,r0,#1
        0x08001b32:    4241        AB      RSBS     r1,r0,#0
        0x08001b34:    4148        HA      ADCS     r0,r0,r1
        0x08001b36:    4770        pG      BX       lr
    led_close
        0x08001b38:    2000        .       MOVS     r0,#0
        0x08001b3a:    4770        pG      BX       lr
    led_ioctrl
        0x08001b3c:    b081        ..      SUB      sp,sp,#4
        0x08001b3e:    9000        ..      STR      r0,[sp,#0]
        0x08001b40:    2000        .       MOVS     r0,#0
        0x08001b42:    b001        ..      ADD      sp,sp,#4
        0x08001b44:    4770        pG      BX       lr
    led_open
        0x08001b46:    2000        .       MOVS     r0,#0
        0x08001b48:    4770        pG      BX       lr
        0x08001b4a:    0000        ..      MOVS     r0,r0
    led_read
        0x08001b4c:    b580        ..      PUSH     {r7,lr}
        0x08001b4e:    b082        ..      SUB      sp,sp,#8
        0x08001b50:    9001        ..      STR      r0,[sp,#4]
        0x08001b52:    9100        ..      STR      r1,[sp,#0]
        0x08001b54:    481b        .H      LDR      r0,[pc,#108] ; [0x8001bc4] = 0x48000400
        0x08001b56:    2120         !      MOVS     r1,#0x20
        0x08001b58:    f7fffda6    ....    BL       gpio_input_bit_get ; 0x80016a8
        0x08001b5c:    2001        .       MOVS     r0,#1
        0x08001b5e:    b002        ..      ADD      sp,sp,#8
        0x08001b60:    bd80        ..      POP      {r7,pc}
        0x08001b62:    46c0        .F      MOV      r8,r8
    led_red_init
        0x08001b64:    b580        ..      PUSH     {r7,lr}
        0x08001b66:    b084        ..      SUB      sp,sp,#0x10
        0x08001b68:    4816        .H      LDR      r0,[pc,#88] ; [0x8001bc4] = 0x48000400
        0x08001b6a:    9001        ..      STR      r0,[sp,#4]
        0x08001b6c:    f7fffd42    ..B.    BL       gpio_deinit ; 0x80015f4
        0x08001b70:    480a        .H      LDR      r0,[pc,#40] ; [0x8001b9c] = 0x512
        0x08001b72:    f000f8c9    ....    BL       rcu_periph_clock_enable ; 0x8001d08
        0x08001b76:    9801        ..      LDR      r0,[sp,#4]
        0x08001b78:    2101        .!      MOVS     r1,#1
        0x08001b7a:    2200        ."      MOVS     r2,#0
        0x08001b7c:    9202        ..      STR      r2,[sp,#8]
        0x08001b7e:    2320         #      MOVS     r3,#0x20
        0x08001b80:    9303        ..      STR      r3,[sp,#0xc]
        0x08001b82:    f7fffda3    ....    BL       gpio_mode_set ; 0x80016cc
        0x08001b86:    9801        ..      LDR      r0,[sp,#4]
        0x08001b88:    9902        ..      LDR      r1,[sp,#8]
        0x08001b8a:    9b03        ..      LDR      r3,[sp,#0xc]
        0x08001b8c:    2203        ."      MOVS     r2,#3
        0x08001b8e:    f7fffde4    ....    BL       gpio_output_options_set ; 0x800175a
        0x08001b92:    4803        .H      LDR      r0,[pc,#12] ; [0x8001ba0] = 0x20000004
        0x08001b94:    f7fffcec    ....    BL       dml_register_device ; 0x8001570
        0x08001b98:    b004        ..      ADD      sp,sp,#0x10
        0x08001b9a:    bd80        ..      POP      {r7,pc}
    $d.8
    __arm_cp.5_1
        0x08001b9c:    00000512    ....    DCD    1298
    __arm_cp.5_2
        0x08001ba0:    20000004    ...     DCD    536870916
    $t.5
    led_write
        0x08001ba4:    b580        ..      PUSH     {r7,lr}
        0x08001ba6:    b082        ..      SUB      sp,sp,#8
        0x08001ba8:    9001        ..      STR      r0,[sp,#4]
        0x08001baa:    9100        ..      STR      r1,[sp,#0]
        0x08001bac:    9801        ..      LDR      r0,[sp,#4]
        0x08001bae:    7802        .x      LDRB     r2,[r0,#0]
        0x08001bb0:    1e50        P.      SUBS     r0,r2,#1
        0x08001bb2:    4182        .A      SBCS     r2,r2,r0
        0x08001bb4:    4803        .H      LDR      r0,[pc,#12] ; [0x8001bc4] = 0x48000400
        0x08001bb6:    2120         !      MOVS     r1,#0x20
        0x08001bb8:    f7fffd0a    ....    BL       gpio_bit_write ; 0x80015d0
        0x08001bbc:    2001        .       MOVS     r0,#1
        0x08001bbe:    b002        ..      ADD      sp,sp,#8
        0x08001bc0:    bd80        ..      POP      {r7,pc}
        0x08001bc2:    46c0        .F      MOV      r8,r8
    $d.6
    __arm_cp.4_0
        0x08001bc4:    48000400    ...H    DCD    1207960576
    $t.6
    list_add_tail
        0x08001bc8:    b580        ..      PUSH     {r7,lr}
        0x08001bca:    b084        ..      SUB      sp,sp,#0x10
        0x08001bcc:    9002        ..      STR      r0,[sp,#8]
        0x08001bce:    9101        ..      STR      r1,[sp,#4]
        0x08001bd0:    9802        ..      LDR      r0,[sp,#8]
        0x08001bd2:    f7ffff7b    ..{.    BL       is_head_valid ; 0x8001acc
        0x08001bd6:    b118        ..      CBZ      r0,0x8001be0 ; list_add_tail + 24
        0x08001bd8:    e7ff        ..      B        0x8001bda ; list_add_tail + 18
        0x08001bda:    9801        ..      LDR      r0,[sp,#4]
        0x08001bdc:    b920         .      CBNZ     r0,0x8001be8 ; list_add_tail + 32
        0x08001bde:    e7ff        ..      B        0x8001be0 ; list_add_tail + 24
        0x08001be0:    a903        ..      ADD      r1,sp,#0xc
        0x08001be2:    2001        .       MOVS     r0,#1
        0x08001be4:    7008        .p      STRB     r0,[r1,#0]
        0x08001be6:    e008        ..      B        0x8001bfa ; list_add_tail + 50
        0x08001be8:    9801        ..      LDR      r0,[sp,#4]
        0x08001bea:    9a02        ..      LDR      r2,[sp,#8]
        0x08001bec:    6811        .h      LDR      r1,[r2,#0]
        0x08001bee:    f000f846    ..F.    BL       list_insert ; 0x8001c7e
        0x08001bf2:    a903        ..      ADD      r1,sp,#0xc
        0x08001bf4:    2000        .       MOVS     r0,#0
        0x08001bf6:    7008        .p      STRB     r0,[r1,#0]
        0x08001bf8:    e7ff        ..      B        0x8001bfa ; list_add_tail + 50
        0x08001bfa:    a803        ..      ADD      r0,sp,#0xc
        0x08001bfc:    7800        .x      LDRB     r0,[r0,#0]
        0x08001bfe:    b004        ..      ADD      sp,sp,#0x10
        0x08001c00:    bd80        ..      POP      {r7,pc}
    list_delete
        0x08001c02:    b082        ..      SUB      sp,sp,#8
        0x08001c04:    9001        ..      STR      r0,[sp,#4]
        0x08001c06:    9100        ..      STR      r1,[sp,#0]
        0x08001c08:    9801        ..      LDR      r0,[sp,#4]
        0x08001c0a:    9900        ..      LDR      r1,[sp,#0]
        0x08001c0c:    6008        .`      STR      r0,[r1,#0]
        0x08001c0e:    9800        ..      LDR      r0,[sp,#0]
        0x08001c10:    9901        ..      LDR      r1,[sp,#4]
        0x08001c12:    6048        H`      STR      r0,[r1,#4]
        0x08001c14:    b002        ..      ADD      sp,sp,#8
        0x08001c16:    4770        pG      BX       lr
    list_delete_item
        0x08001c18:    b580        ..      PUSH     {r7,lr}
        0x08001c1a:    b082        ..      SUB      sp,sp,#8
        0x08001c1c:    9000        ..      STR      r0,[sp,#0]
        0x08001c1e:    9800        ..      LDR      r0,[sp,#0]
        0x08001c20:    b140        @.      CBZ      r0,0x8001c34 ; list_delete_item + 28
        0x08001c22:    e7ff        ..      B        0x8001c24 ; list_delete_item + 12
        0x08001c24:    9800        ..      LDR      r0,[sp,#0]
        0x08001c26:    6800        .h      LDR      r0,[r0,#0]
        0x08001c28:    b120         .      CBZ      r0,0x8001c34 ; list_delete_item + 28
        0x08001c2a:    e7ff        ..      B        0x8001c2c ; list_delete_item + 20
        0x08001c2c:    9800        ..      LDR      r0,[sp,#0]
        0x08001c2e:    6840        @h      LDR      r0,[r0,#4]
        0x08001c30:    b920         .      CBNZ     r0,0x8001c3c ; list_delete_item + 36
        0x08001c32:    e7ff        ..      B        0x8001c34 ; list_delete_item + 28
        0x08001c34:    a901        ..      ADD      r1,sp,#4
        0x08001c36:    2001        .       MOVS     r0,#1
        0x08001c38:    7008        .p      STRB     r0,[r1,#0]
        0x08001c3a:    e00b        ..      B        0x8001c54 ; list_delete_item + 60
        0x08001c3c:    9900        ..      LDR      r1,[sp,#0]
        0x08001c3e:    6808        .h      LDR      r0,[r1,#0]
        0x08001c40:    6849        Ih      LDR      r1,[r1,#4]
        0x08001c42:    f7ffffde    ....    BL       list_delete ; 0x8001c02
        0x08001c46:    9800        ..      LDR      r0,[sp,#0]
        0x08001c48:    f000f808    ....    BL       list_free ; 0x8001c5c
        0x08001c4c:    a901        ..      ADD      r1,sp,#4
        0x08001c4e:    2000        .       MOVS     r0,#0
        0x08001c50:    7008        .p      STRB     r0,[r1,#0]
        0x08001c52:    e7ff        ..      B        0x8001c54 ; list_delete_item + 60
        0x08001c54:    a801        ..      ADD      r0,sp,#4
        0x08001c56:    7800        .x      LDRB     r0,[r0,#0]
        0x08001c58:    b002        ..      ADD      sp,sp,#8
        0x08001c5a:    bd80        ..      POP      {r7,pc}
    list_free
        0x08001c5c:    b081        ..      SUB      sp,sp,#4
        0x08001c5e:    9000        ..      STR      r0,[sp,#0]
        0x08001c60:    9900        ..      LDR      r1,[sp,#0]
        0x08001c62:    2000        .       MOVS     r0,#0
        0x08001c64:    6048        H`      STR      r0,[r1,#4]
        0x08001c66:    9900        ..      LDR      r1,[sp,#0]
        0x08001c68:    6008        .`      STR      r0,[r1,#0]
        0x08001c6a:    b001        ..      ADD      sp,sp,#4
        0x08001c6c:    4770        pG      BX       lr
    list_init
        0x08001c6e:    b081        ..      SUB      sp,sp,#4
        0x08001c70:    9000        ..      STR      r0,[sp,#0]
        0x08001c72:    9800        ..      LDR      r0,[sp,#0]
        0x08001c74:    6040        @`      STR      r0,[r0,#4]
        0x08001c76:    9800        ..      LDR      r0,[sp,#0]
        0x08001c78:    6000        .`      STR      r0,[r0,#0]
        0x08001c7a:    b001        ..      ADD      sp,sp,#4
        0x08001c7c:    4770        pG      BX       lr
    list_insert
        0x08001c7e:    b083        ..      SUB      sp,sp,#0xc
        0x08001c80:    9002        ..      STR      r0,[sp,#8]
        0x08001c82:    9101        ..      STR      r1,[sp,#4]
        0x08001c84:    9200        ..      STR      r2,[sp,#0]
        0x08001c86:    9802        ..      LDR      r0,[sp,#8]
        0x08001c88:    9900        ..      LDR      r1,[sp,#0]
        0x08001c8a:    6008        .`      STR      r0,[r1,#0]
        0x08001c8c:    9800        ..      LDR      r0,[sp,#0]
        0x08001c8e:    9902        ..      LDR      r1,[sp,#8]
        0x08001c90:    6048        H`      STR      r0,[r1,#4]
        0x08001c92:    9801        ..      LDR      r0,[sp,#4]
        0x08001c94:    9902        ..      LDR      r1,[sp,#8]
        0x08001c96:    6008        .`      STR      r0,[r1,#0]
        0x08001c98:    9802        ..      LDR      r0,[sp,#8]
        0x08001c9a:    9901        ..      LDR      r1,[sp,#4]
        0x08001c9c:    6048        H`      STR      r0,[r1,#4]
        0x08001c9e:    b003        ..      ADD      sp,sp,#0xc
        0x08001ca0:    4770        pG      BX       lr
    main
        0x08001ca2:    b580        ..      PUSH     {r7,lr}
        0x08001ca4:    f000fa44    ..D.    BL       task_dispatch_looper ; 0x8002130
        0x08001ca8:    2000        .       MOVS     r0,#0
        0x08001caa:    bd80        ..      POP      {r7,pc}
    nvic_irq_enable
        0x08001cac:    b580        ..      PUSH     {r7,lr}
        0x08001cae:    b084        ..      SUB      sp,sp,#0x10
        0x08001cb0:    460a        .F      MOV      r2,r1
        0x08001cb2:    4601        .F      MOV      r1,r0
        0x08001cb4:    a803        ..      ADD      r0,sp,#0xc
        0x08001cb6:    9001        ..      STR      r0,[sp,#4]
        0x08001cb8:    7001        .p      STRB     r1,[r0,#0]
        0x08001cba:    a902        ..      ADD      r1,sp,#8
        0x08001cbc:    700a        .p      STRB     r2,[r1,#0]
        0x08001cbe:    7800        .x      LDRB     r0,[r0,#0]
        0x08001cc0:    7809        .x      LDRB     r1,[r1,#0]
        0x08001cc2:    f7fffb1f    ....    BL       __NVIC_SetPriority ; 0x8001304
        0x08001cc6:    9801        ..      LDR      r0,[sp,#4]
        0x08001cc8:    7800        .x      LDRB     r0,[r0,#0]
        0x08001cca:    f7fffb05    ....    BL       __NVIC_EnableIRQ ; 0x80012d8
        0x08001cce:    b004        ..      ADD      sp,sp,#0x10
        0x08001cd0:    bd80        ..      POP      {r7,pc}
        0x08001cd2:    0000        ..      MOVS     r0,r0
    nvic_vector_table_set
        0x08001cd4:    b082        ..      SUB      sp,sp,#8
        0x08001cd6:    9001        ..      STR      r0,[sp,#4]
        0x08001cd8:    9100        ..      STR      r1,[sp,#0]
        0x08001cda:    9801        ..      LDR      r0,[sp,#4]
        0x08001cdc:    9900        ..      LDR      r1,[sp,#0]
        0x08001cde:    4a04        .J      LDR      r2,[pc,#16] ; [0x8001cf0] = 0x1fffff80
        0x08001ce0:    4011        .@      ANDS     r1,r1,r2
        0x08001ce2:    4308        .C      ORRS     r0,r0,r1
        0x08001ce4:    4903        .I      LDR      r1,[pc,#12] ; [0x8001cf4] = 0xe000ed08
        0x08001ce6:    6008        .`      STR      r0,[r1,#0]
        0x08001ce8:    f3bf8f4f    ..O.    DSB      
        0x08001cec:    b002        ..      ADD      sp,sp,#8
        0x08001cee:    4770        pG      BX       lr
    $d.12
    __arm_cp.7_0
        0x08001cf0:    1fffff80    ....    DCD    536870784
    __arm_cp.7_1
        0x08001cf4:    e000ed08    ....    DCD    3758157064
    $t.2
    platform_stimer_init
        0x08001cf8:    b580        ..      PUSH     {r7,lr}
        0x08001cfa:    4802        .H      LDR      r0,[pc,#8] ; [0x8001d04] = 0x2000001c
        0x08001cfc:    f000f83a    ..:.    BL       stimer_init ; 0x8001d74
        0x08001d00:    bd80        ..      POP      {r7,pc}
        0x08001d02:    46c0        .F      MOV      r8,r8
    $d.3
    __arm_cp.1_0
        0x08001d04:    2000001c    ...     DCD    536870940
    $t.2
    rcu_periph_clock_enable
        0x08001d08:    b081        ..      SUB      sp,sp,#4
        0x08001d0a:    9000        ..      STR      r0,[sp,#0]
        0x08001d0c:    9800        ..      LDR      r0,[sp,#0]
        0x08001d0e:    221f        ."      MOVS     r2,#0x1f
        0x08001d10:    4601        .F      MOV      r1,r0
        0x08001d12:    4011        .@      ANDS     r1,r1,r2
        0x08001d14:    2301        .#      MOVS     r3,#1
        0x08001d16:    408b        .@      LSLS     r3,r3,r1
        0x08001d18:    0981        ..      LSRS     r1,r0,#6
        0x08001d1a:    4a13        .J      LDR      r2,[pc,#76] ; [0x8001d68] = 0x40021000
        0x08001d1c:    5888        .X      LDR      r0,[r1,r2]
        0x08001d1e:    4318        .C      ORRS     r0,r0,r3
        0x08001d20:    5088        .P      STR      r0,[r1,r2]
        0x08001d22:    b001        ..      ADD      sp,sp,#4
        0x08001d24:    4770        pG      BX       lr
        0x08001d26:    46c0        .F      MOV      r8,r8
    rcu_periph_reset_disable
        0x08001d28:    b081        ..      SUB      sp,sp,#4
        0x08001d2a:    9000        ..      STR      r0,[sp,#0]
        0x08001d2c:    9800        ..      LDR      r0,[sp,#0]
        0x08001d2e:    221f        ."      MOVS     r2,#0x1f
        0x08001d30:    4601        .F      MOV      r1,r0
        0x08001d32:    4011        .@      ANDS     r1,r1,r2
        0x08001d34:    2301        .#      MOVS     r3,#1
        0x08001d36:    408b        .@      LSLS     r3,r3,r1
        0x08001d38:    0981        ..      LSRS     r1,r0,#6
        0x08001d3a:    4af5        .J      LDR      r2,[pc,#980] ; [0x8002110] = 0x40021000
        0x08001d3c:    5888        .X      LDR      r0,[r1,r2]
        0x08001d3e:    4398        .C      BICS     r0,r0,r3
        0x08001d40:    5088        .P      STR      r0,[r1,r2]
        0x08001d42:    b001        ..      ADD      sp,sp,#4
        0x08001d44:    4770        pG      BX       lr
        0x08001d46:    46c0        .F      MOV      r8,r8
    rcu_periph_reset_enable
        0x08001d48:    b081        ..      SUB      sp,sp,#4
        0x08001d4a:    9000        ..      STR      r0,[sp,#0]
        0x08001d4c:    9800        ..      LDR      r0,[sp,#0]
        0x08001d4e:    221f        ."      MOVS     r2,#0x1f
        0x08001d50:    4601        .F      MOV      r1,r0
        0x08001d52:    4011        .@      ANDS     r1,r1,r2
        0x08001d54:    2301        .#      MOVS     r3,#1
        0x08001d56:    408b        .@      LSLS     r3,r3,r1
        0x08001d58:    0981        ..      LSRS     r1,r0,#6
        0x08001d5a:    4aed        .J      LDR      r2,[pc,#948] ; [0x8002110] = 0x40021000
        0x08001d5c:    5888        .X      LDR      r0,[r1,r2]
        0x08001d5e:    4318        .C      ORRS     r0,r0,r3
        0x08001d60:    5088        .P      STR      r0,[r1,r2]
        0x08001d62:    b001        ..      ADD      sp,sp,#4
        0x08001d64:    4770        pG      BX       lr
        0x08001d66:    46c0        .F      MOV      r8,r8
    $d.11
    __arm_cp.5_0
        0x08001d68:    40021000    ...@    DCD    1073876992
    $t.17
    stimer_get_tick
        0x08001d6c:    48af        .H      LDR      r0,[pc,#700] ; [0x800202c] = 0x20000778
        0x08001d6e:    6840        @h      LDR      r0,[r0,#4]
        0x08001d70:    4770        pG      BX       lr
        0x08001d72:    46c0        .F      MOV      r8,r8
    stimer_init
        0x08001d74:    b5b0        ..      PUSH     {r4,r5,r7,lr}
        0x08001d76:    b090        ..      SUB      sp,sp,#0x40
        0x08001d78:    900e        ..      STR      r0,[sp,#0x38]
        0x08001d7a:    980e        ..      LDR      r0,[sp,#0x38]
        0x08001d7c:    b140        @.      CBZ      r0,0x8001d90 ; stimer_init + 28
        0x08001d7e:    e7ff        ..      B        0x8001d80 ; stimer_init + 12
        0x08001d80:    980e        ..      LDR      r0,[sp,#0x38]
        0x08001d82:    6800        .h      LDR      r0,[r0,#0]
        0x08001d84:    b120         .      CBZ      r0,0x8001d90 ; stimer_init + 28
        0x08001d86:    e7ff        ..      B        0x8001d88 ; stimer_init + 20
        0x08001d88:    980e        ..      LDR      r0,[sp,#0x38]
        0x08001d8a:    6840        @h      LDR      r0,[r0,#4]
        0x08001d8c:    b920         .      CBNZ     r0,0x8001d98 ; stimer_init + 36
        0x08001d8e:    e7ff        ..      B        0x8001d90 ; stimer_init + 28
        0x08001d90:    2000        .       MOVS     r0,#0
        0x08001d92:    43c0        .C      MVNS     r0,r0
        0x08001d94:    900f        ..      STR      r0,[sp,#0x3c]
        0x08001d96:    e054        T.      B        0x8001e42 ; stimer_init + 206
        0x08001d98:    48a4        .H      LDR      r0,[pc,#656] ; [0x800202c] = 0x20000778
        0x08001d9a:    9002        ..      STR      r0,[sp,#8]
        0x08001d9c:    2100        .!      MOVS     r1,#0
        0x08001d9e:    9103        ..      STR      r1,[sp,#0xc]
        0x08001da0:    6041        A`      STR      r1,[r0,#4]
        0x08001da2:    6001        .`      STR      r1,[r0,#0]
        0x08001da4:    6081        .`      STR      r1,[r0,#8]
        0x08001da6:    3010        .0      ADDS     r0,r0,#0x10
        0x08001da8:    f7ffff61    ..a.    BL       list_init ; 0x8001c6e
        0x08001dac:    9802        ..      LDR      r0,[sp,#8]
        0x08001dae:    3018        .0      ADDS     r0,r0,#0x18
        0x08001db0:    f7ffff5d    ..].    BL       list_init ; 0x8001c6e
        0x08001db4:    9803        ..      LDR      r0,[sp,#0xc]
        0x08001db6:    900d        ..      STR      r0,[sp,#0x34]
        0x08001db8:    e7ff        ..      B        0x8001dba ; stimer_init + 70
        0x08001dba:    980d        ..      LDR      r0,[sp,#0x34]
        0x08001dbc:    280f        .(      CMP      r0,#0xf
        0x08001dbe:    dc1d        ..      BGT      0x8001dfc ; stimer_init + 136
        0x08001dc0:    e7ff        ..      B        0x8001dc2 ; stimer_init + 78
        0x08001dc2:    980d        ..      LDR      r0,[sp,#0x34]
        0x08001dc4:    0141        A.      LSLS     r1,r0,#5
        0x08001dc6:    4821        !H      LDR      r0,[pc,#132] ; [0x8001e4c] = 0x20000560
        0x08001dc8:    1840        @.      ADDS     r0,r0,r1
        0x08001dca:    2100        .!      MOVS     r1,#0
        0x08001dcc:    9101        ..      STR      r1,[sp,#4]
        0x08001dce:    910c        ..      STR      r1,[sp,#0x30]
        0x08001dd0:    910b        ..      STR      r1,[sp,#0x2c]
        0x08001dd2:    910a        ..      STR      r1,[sp,#0x28]
        0x08001dd4:    9109        ..      STR      r1,[sp,#0x24]
        0x08001dd6:    9108        ..      STR      r1,[sp,#0x20]
        0x08001dd8:    9107        ..      STR      r1,[sp,#0x1c]
        0x08001dda:    9106        ..      STR      r1,[sp,#0x18]
        0x08001ddc:    9105        ..      STR      r1,[sp,#0x14]
        0x08001dde:    2101        .!      MOVS     r1,#1
        0x08001de0:    910b        ..      STR      r1,[sp,#0x2c]
        0x08001de2:    990d        ..      LDR      r1,[sp,#0x34]
        0x08001de4:    1c4a        J.      ADDS     r2,r1,#1
        0x08001de6:    a905        ..      ADD      r1,sp,#0x14
        0x08001de8:    770a        .w      STRB     r2,[r1,#0x1c]
        0x08001dea:    c93c        <.      LDM      r1!,{r2-r5}
        0x08001dec:    c03c        <.      STM      r0!,{r2-r5}
        0x08001dee:    c93c        <.      LDM      r1!,{r2-r5}
        0x08001df0:    c03c        <.      STM      r0!,{r2-r5}
        0x08001df2:    e7ff        ..      B        0x8001df4 ; stimer_init + 128
        0x08001df4:    980d        ..      LDR      r0,[sp,#0x34]
        0x08001df6:    1c40        @.      ADDS     r0,r0,#1
        0x08001df8:    900d        ..      STR      r0,[sp,#0x34]
        0x08001dfa:    e7de        ..      B        0x8001dba ; stimer_init + 70
        0x08001dfc:    a904        ..      ADD      r1,sp,#0x10
        0x08001dfe:    2000        .       MOVS     r0,#0
        0x08001e00:    7008        .p      STRB     r0,[r1,#0]
        0x08001e02:    e7ff        ..      B        0x8001e04 ; stimer_init + 144
        0x08001e04:    a804        ..      ADD      r0,sp,#0x10
        0x08001e06:    7800        .x      LDRB     r0,[r0,#0]
        0x08001e08:    281f        .(      CMP      r0,#0x1f
        0x08001e0a:    dc0e        ..      BGT      0x8001e2a ; stimer_init + 182
        0x08001e0c:    e7ff        ..      B        0x8001e0e ; stimer_init + 154
        0x08001e0e:    a804        ..      ADD      r0,sp,#0x10
        0x08001e10:    7800        .x      LDRB     r0,[r0,#0]
        0x08001e12:    00c1        ..      LSLS     r1,r0,#3
        0x08001e14:    4885        .H      LDR      r0,[pc,#532] ; [0x800202c] = 0x20000778
        0x08001e16:    1840        @.      ADDS     r0,r0,r1
        0x08001e18:    3020         0      ADDS     r0,r0,#0x20
        0x08001e1a:    f7ffff28    ..(.    BL       list_init ; 0x8001c6e
        0x08001e1e:    e7ff        ..      B        0x8001e20 ; stimer_init + 172
        0x08001e20:    9804        ..      LDR      r0,[sp,#0x10]
        0x08001e22:    1c40        @.      ADDS     r0,r0,#1
        0x08001e24:    a904        ..      ADD      r1,sp,#0x10
        0x08001e26:    7008        .p      STRB     r0,[r1,#0]
        0x08001e28:    e7ec        ..      B        0x8001e04 ; stimer_init + 144
        0x08001e2a:    980e        ..      LDR      r0,[sp,#0x38]
        0x08001e2c:    6802        .h      LDR      r2,[r0,#0]
        0x08001e2e:    4906        .I      LDR      r1,[pc,#24] ; [0x8001e48] = 0x8001431
        0x08001e30:    2002        .       MOVS     r0,#2
        0x08001e32:    4790        .G      BLX      r2
        0x08001e34:    980e        ..      LDR      r0,[sp,#0x38]
        0x08001e36:    6840        @h      LDR      r0,[r0,#4]
        0x08001e38:    497c        |I      LDR      r1,[pc,#496] ; [0x800202c] = 0x20000778
        0x08001e3a:    60c8        .`      STR      r0,[r1,#0xc]
        0x08001e3c:    2000        .       MOVS     r0,#0
        0x08001e3e:    900f        ..      STR      r0,[sp,#0x3c]
        0x08001e40:    e7ff        ..      B        0x8001e42 ; stimer_init + 206
        0x08001e42:    980f        ..      LDR      r0,[sp,#0x3c]
        0x08001e44:    b010        ..      ADD      sp,sp,#0x40
        0x08001e46:    bdb0        ..      POP      {r4,r5,r7,pc}
    $d.7
    __arm_cp.3_1
        0x08001e48:    08001431    1...    DCD    134222897
    __arm_cp.3_2
        0x08001e4c:    20000560    `..     DCD    536872288
    $t.15
    stimer_start
        0x08001e50:    b580        ..      PUSH     {r7,lr}
        0x08001e52:    b082        ..      SUB      sp,sp,#8
        0x08001e54:    4875        uH      LDR      r0,[pc,#468] ; [0x800202c] = 0x20000778
        0x08001e56:    68c0        .h      LDR      r0,[r0,#0xc]
        0x08001e58:    b140        @.      CBZ      r0,0x8001e6c ; stimer_start + 28
        0x08001e5a:    e7ff        ..      B        0x8001e5c ; stimer_start + 12
        0x08001e5c:    4873        sH      LDR      r0,[pc,#460] ; [0x800202c] = 0x20000778
        0x08001e5e:    9001        ..      STR      r0,[sp,#4]
        0x08001e60:    68c0        .h      LDR      r0,[r0,#0xc]
        0x08001e62:    4780        .G      BLX      r0
        0x08001e64:    9901        ..      LDR      r1,[sp,#4]
        0x08001e66:    2001        .       MOVS     r0,#1
        0x08001e68:    6088        .`      STR      r0,[r1,#8]
        0x08001e6a:    e7ff        ..      B        0x8001e6c ; stimer_start + 28
        0x08001e6c:    b002        ..      ADD      sp,sp,#8
        0x08001e6e:    bd80        ..      POP      {r7,pc}
    $d.16
    __arm_cp.9_0
        0x08001e70:    20000778    x..     DCD    536872824
    $t.10
    stimer_task_add
        0x08001e74:    b580        ..      PUSH     {r7,lr}
        0x08001e76:    b084        ..      SUB      sp,sp,#0x10
        0x08001e78:    9002        ..      STR      r0,[sp,#8]
        0x08001e7a:    9802        ..      LDR      r0,[sp,#8]
        0x08001e7c:    f7fffe3e    ..>.    BL       is_task_valid ; 0x8001afc
        0x08001e80:    b920         .      CBNZ     r0,0x8001e8c ; stimer_task_add + 24
        0x08001e82:    e7ff        ..      B        0x8001e84 ; stimer_task_add + 16
        0x08001e84:    2000        .       MOVS     r0,#0
        0x08001e86:    43c0        .C      MVNS     r0,r0
        0x08001e88:    9003        ..      STR      r0,[sp,#0xc]
        0x08001e8a:    e00b        ..      B        0x8001ea4 ; stimer_task_add + 48
        0x08001e8c:    9902        ..      LDR      r1,[sp,#8]
        0x08001e8e:    2000        .       MOVS     r0,#0
        0x08001e90:    9001        ..      STR      r0,[sp,#4]
        0x08001e92:    6088        .`      STR      r0,[r1,#8]
        0x08001e94:    9902        ..      LDR      r1,[sp,#8]
        0x08001e96:    6848        Hh      LDR      r0,[r1,#4]
        0x08001e98:    310c        .1      ADDS     r1,r1,#0xc
        0x08001e9a:    f7fffa6f    ..o.    BL       _add_timer ; 0x800137c
        0x08001e9e:    9801        ..      LDR      r0,[sp,#4]
        0x08001ea0:    9003        ..      STR      r0,[sp,#0xc]
        0x08001ea2:    e7ff        ..      B        0x8001ea4 ; stimer_task_add + 48
        0x08001ea4:    9803        ..      LDR      r0,[sp,#0xc]
        0x08001ea6:    b004        ..      ADD      sp,sp,#0x10
        0x08001ea8:    bd80        ..      POP      {r7,pc}
        0x08001eaa:    0000        ..      MOVS     r0,r0
    stimer_task_dispatch
        0x08001eac:    b580        ..      PUSH     {r7,lr}
        0x08001eae:    b08c        ..      SUB      sp,sp,#0x30
        0x08001eb0:    f7fffe3c    ..<.    BL       is_timer_run ; 0x8001b2c
        0x08001eb4:    b130        0.      CBZ      r0,0x8001ec4 ; stimer_task_dispatch + 24
        0x08001eb6:    e7ff        ..      B        0x8001eb8 ; stimer_task_dispatch + 12
        0x08001eb8:    495c        \I      LDR      r1,[pc,#368] ; [0x800202c] = 0x20000778
        0x08001eba:    6808        .h      LDR      r0,[r1,#0]
        0x08001ebc:    6849        Ih      LDR      r1,[r1,#4]
        0x08001ebe:    4288        .B      CMP      r0,r1
        0x08001ec0:    d101        ..      BNE      0x8001ec6 ; stimer_task_dispatch + 26
        0x08001ec2:    e7ff        ..      B        0x8001ec4 ; stimer_task_dispatch + 24
        0x08001ec4:    e0b0        ..      B        0x8002028 ; stimer_task_dispatch + 380
        0x08001ec6:    4859        YH      LDR      r0,[pc,#356] ; [0x800202c] = 0x20000778
        0x08001ec8:    6801        .h      LDR      r1,[r0,#0]
        0x08001eca:    1c49        I.      ADDS     r1,r1,#1
        0x08001ecc:    6001        .`      STR      r1,[r0,#0]
        0x08001ece:    6800        .h      LDR      r0,[r0,#0]
        0x08001ed0:    211f        .!      MOVS     r1,#0x1f
        0x08001ed2:    4008        .@      ANDS     r0,r0,r1
        0x08001ed4:    900b        ..      STR      r0,[sp,#0x2c]
        0x08001ed6:    980b        ..      LDR      r0,[sp,#0x2c]
        0x08001ed8:    2800        .(      CMP      r0,#0
        0x08001eda:    d141        A.      BNE      0x8001f60 ; stimer_task_dispatch + 180
        0x08001edc:    e7ff        ..      B        0x8001ede ; stimer_task_dispatch + 50
        0x08001ede:    4853        SH      LDR      r0,[pc,#332] ; [0x800202c] = 0x20000778
        0x08001ee0:    6940        @i      LDR      r0,[r0,#0x14]
        0x08001ee2:    9009        ..      STR      r0,[sp,#0x24]
        0x08001ee4:    9809        ..      LDR      r0,[sp,#0x24]
        0x08001ee6:    6840        @h      LDR      r0,[r0,#4]
        0x08001ee8:    9008        ..      STR      r0,[sp,#0x20]
        0x08001eea:    e7ff        ..      B        0x8001eec ; stimer_task_dispatch + 64
        0x08001eec:    9809        ..      LDR      r0,[sp,#0x24]
        0x08001eee:    494f        OI      LDR      r1,[pc,#316] ; [0x800202c] = 0x20000778
        0x08001ef0:    3110        .1      ADDS     r1,r1,#0x10
        0x08001ef2:    4288        .B      CMP      r0,r1
        0x08001ef4:    d033        3.      BEQ      0x8001f5e ; stimer_task_dispatch + 178
        0x08001ef6:    e7ff        ..      B        0x8001ef8 ; stimer_task_dispatch + 76
        0x08001ef8:    9809        ..      LDR      r0,[sp,#0x24]
        0x08001efa:    9006        ..      STR      r0,[sp,#0x18]
        0x08001efc:    9806        ..      LDR      r0,[sp,#0x18]
        0x08001efe:    380c        .8      SUBS     r0,r0,#0xc
        0x08001f00:    9005        ..      STR      r0,[sp,#0x14]
        0x08001f02:    9805        ..      LDR      r0,[sp,#0x14]
        0x08001f04:    9007        ..      STR      r0,[sp,#0x1c]
        0x08001f06:    9907        ..      LDR      r1,[sp,#0x1c]
        0x08001f08:    6888        .h      LDR      r0,[r1,#8]
        0x08001f0a:    3020         0      ADDS     r0,r0,#0x20
        0x08001f0c:    6088        .`      STR      r0,[r1,#8]
        0x08001f0e:    9907        ..      LDR      r1,[sp,#0x1c]
        0x08001f10:    6848        Hh      LDR      r0,[r1,#4]
        0x08001f12:    6889        .h      LDR      r1,[r1,#8]
        0x08001f14:    1a40        @.      SUBS     r0,r0,r1
        0x08001f16:    900a        ..      STR      r0,[sp,#0x28]
        0x08001f18:    980a        ..      LDR      r0,[sp,#0x28]
        0x08001f1a:    b978        x.      CBNZ     r0,0x8001f3c ; stimer_task_dispatch + 144
        0x08001f1c:    e7ff        ..      B        0x8001f1e ; stimer_task_dispatch + 114
        0x08001f1e:    9807        ..      LDR      r0,[sp,#0x1c]
        0x08001f20:    6800        .h      LDR      r0,[r0,#0]
        0x08001f22:    4780        .G      BLX      r0
        0x08001f24:    9907        ..      LDR      r1,[sp,#0x1c]
        0x08001f26:    2000        .       MOVS     r0,#0
        0x08001f28:    6088        .`      STR      r0,[r1,#8]
        0x08001f2a:    9807        ..      LDR      r0,[sp,#0x1c]
        0x08001f2c:    6940        @i      LDR      r0,[r0,#0x14]
        0x08001f2e:    b920         .      CBNZ     r0,0x8001f3a ; stimer_task_dispatch + 142
        0x08001f30:    e7ff        ..      B        0x8001f32 ; stimer_task_dispatch + 134
        0x08001f32:    9809        ..      LDR      r0,[sp,#0x24]
        0x08001f34:    f7fffe70    ..p.    BL       list_delete_item ; 0x8001c18
        0x08001f38:    e7ff        ..      B        0x8001f3a ; stimer_task_dispatch + 142
        0x08001f3a:    e009        ..      B        0x8001f50 ; stimer_task_dispatch + 164
        0x08001f3c:    980a        ..      LDR      r0,[sp,#0x28]
        0x08001f3e:    281f        .(      CMP      r0,#0x1f
        0x08001f40:    d805        ..      BHI      0x8001f4e ; stimer_task_dispatch + 162
        0x08001f42:    e7ff        ..      B        0x8001f44 ; stimer_task_dispatch + 152
        0x08001f44:    980a        ..      LDR      r0,[sp,#0x28]
        0x08001f46:    9909        ..      LDR      r1,[sp,#0x24]
        0x08001f48:    f7fffa18    ....    BL       _add_timer ; 0x800137c
        0x08001f4c:    e7ff        ..      B        0x8001f4e ; stimer_task_dispatch + 162
        0x08001f4e:    e7ff        ..      B        0x8001f50 ; stimer_task_dispatch + 164
        0x08001f50:    e7ff        ..      B        0x8001f52 ; stimer_task_dispatch + 166
        0x08001f52:    9808        ..      LDR      r0,[sp,#0x20]
        0x08001f54:    9009        ..      STR      r0,[sp,#0x24]
        0x08001f56:    9809        ..      LDR      r0,[sp,#0x24]
        0x08001f58:    6840        @h      LDR      r0,[r0,#4]
        0x08001f5a:    9008        ..      STR      r0,[sp,#0x20]
        0x08001f5c:    e7c6        ..      B        0x8001eec ; stimer_task_dispatch + 64
        0x08001f5e:    e7ff        ..      B        0x8001f60 ; stimer_task_dispatch + 180
        0x08001f60:    980b        ..      LDR      r0,[sp,#0x2c]
        0x08001f62:    00c1        ..      LSLS     r1,r0,#3
        0x08001f64:    4831        1H      LDR      r0,[pc,#196] ; [0x800202c] = 0x20000778
        0x08001f66:    1840        @.      ADDS     r0,r0,r1
        0x08001f68:    6a40        @j      LDR      r0,[r0,#0x24]
        0x08001f6a:    9009        ..      STR      r0,[sp,#0x24]
        0x08001f6c:    9809        ..      LDR      r0,[sp,#0x24]
        0x08001f6e:    6840        @h      LDR      r0,[r0,#4]
        0x08001f70:    9008        ..      STR      r0,[sp,#0x20]
        0x08001f72:    e7ff        ..      B        0x8001f74 ; stimer_task_dispatch + 200
        0x08001f74:    9809        ..      LDR      r0,[sp,#0x24]
        0x08001f76:    990b        ..      LDR      r1,[sp,#0x2c]
        0x08001f78:    00ca        ..      LSLS     r2,r1,#3
        0x08001f7a:    492c        ,I      LDR      r1,[pc,#176] ; [0x800202c] = 0x20000778
        0x08001f7c:    1889        ..      ADDS     r1,r1,r2
        0x08001f7e:    3120         1      ADDS     r1,r1,#0x20
        0x08001f80:    4288        .B      CMP      r0,r1
        0x08001f82:    d023        #.      BEQ      0x8001fcc ; stimer_task_dispatch + 288
        0x08001f84:    e7ff        ..      B        0x8001f86 ; stimer_task_dispatch + 218
        0x08001f86:    9809        ..      LDR      r0,[sp,#0x24]
        0x08001f88:    9004        ..      STR      r0,[sp,#0x10]
        0x08001f8a:    9804        ..      LDR      r0,[sp,#0x10]
        0x08001f8c:    380c        .8      SUBS     r0,r0,#0xc
        0x08001f8e:    9003        ..      STR      r0,[sp,#0xc]
        0x08001f90:    9803        ..      LDR      r0,[sp,#0xc]
        0x08001f92:    9007        ..      STR      r0,[sp,#0x1c]
        0x08001f94:    9807        ..      LDR      r0,[sp,#0x1c]
        0x08001f96:    6800        .h      LDR      r0,[r0,#0]
        0x08001f98:    4780        .G      BLX      r0
        0x08001f9a:    9807        ..      LDR      r0,[sp,#0x1c]
        0x08001f9c:    6940        @i      LDR      r0,[r0,#0x14]
        0x08001f9e:    b920         .      CBNZ     r0,0x8001faa ; stimer_task_dispatch + 254
        0x08001fa0:    e7ff        ..      B        0x8001fa2 ; stimer_task_dispatch + 246
        0x08001fa2:    9809        ..      LDR      r0,[sp,#0x24]
        0x08001fa4:    f7fffe38    ..8.    BL       list_delete_item ; 0x8001c18
        0x08001fa8:    e009        ..      B        0x8001fbe ; stimer_task_dispatch + 274
        0x08001faa:    980b        ..      LDR      r0,[sp,#0x2c]
        0x08001fac:    4240        @B      RSBS     r0,r0,#0
        0x08001fae:    9907        ..      LDR      r1,[sp,#0x1c]
        0x08001fb0:    6088        .`      STR      r0,[r1,#8]
        0x08001fb2:    9907        ..      LDR      r1,[sp,#0x1c]
        0x08001fb4:    6848        Hh      LDR      r0,[r1,#4]
        0x08001fb6:    310c        .1      ADDS     r1,r1,#0xc
        0x08001fb8:    f7fff9e0    ....    BL       _add_timer ; 0x800137c
        0x08001fbc:    e7ff        ..      B        0x8001fbe ; stimer_task_dispatch + 274
        0x08001fbe:    e7ff        ..      B        0x8001fc0 ; stimer_task_dispatch + 276
        0x08001fc0:    9808        ..      LDR      r0,[sp,#0x20]
        0x08001fc2:    9009        ..      STR      r0,[sp,#0x24]
        0x08001fc4:    9809        ..      LDR      r0,[sp,#0x24]
        0x08001fc6:    6840        @h      LDR      r0,[r0,#4]
        0x08001fc8:    9008        ..      STR      r0,[sp,#0x20]
        0x08001fca:    e7d3        ..      B        0x8001f74 ; stimer_task_dispatch + 200
        0x08001fcc:    4817        .H      LDR      r0,[pc,#92] ; [0x800202c] = 0x20000778
        0x08001fce:    69c0        .i      LDR      r0,[r0,#0x1c]
        0x08001fd0:    9009        ..      STR      r0,[sp,#0x24]
        0x08001fd2:    9809        ..      LDR      r0,[sp,#0x24]
        0x08001fd4:    6840        @h      LDR      r0,[r0,#4]
        0x08001fd6:    9008        ..      STR      r0,[sp,#0x20]
        0x08001fd8:    e7ff        ..      B        0x8001fda ; stimer_task_dispatch + 302
        0x08001fda:    9809        ..      LDR      r0,[sp,#0x24]
        0x08001fdc:    4913        .I      LDR      r1,[pc,#76] ; [0x800202c] = 0x20000778
        0x08001fde:    3118        .1      ADDS     r1,r1,#0x18
        0x08001fe0:    4288        .B      CMP      r0,r1
        0x08001fe2:    d021        !.      BEQ      0x8002028 ; stimer_task_dispatch + 380
        0x08001fe4:    e7ff        ..      B        0x8001fe6 ; stimer_task_dispatch + 314
        0x08001fe6:    9809        ..      LDR      r0,[sp,#0x24]
        0x08001fe8:    9002        ..      STR      r0,[sp,#8]
        0x08001fea:    9802        ..      LDR      r0,[sp,#8]
        0x08001fec:    380c        .8      SUBS     r0,r0,#0xc
        0x08001fee:    9001        ..      STR      r0,[sp,#4]
        0x08001ff0:    9801        ..      LDR      r0,[sp,#4]
        0x08001ff2:    9007        ..      STR      r0,[sp,#0x1c]
        0x08001ff4:    9907        ..      LDR      r1,[sp,#0x1c]
        0x08001ff6:    6888        .h      LDR      r0,[r1,#8]
        0x08001ff8:    1c40        @.      ADDS     r0,r0,#1
        0x08001ffa:    6088        .`      STR      r0,[r1,#8]
        0x08001ffc:    9907        ..      LDR      r1,[sp,#0x1c]
        0x08001ffe:    6849        Ih      LDR      r1,[r1,#4]
        0x08002000:    4288        .B      CMP      r0,r1
        0x08002002:    d30a        ..      BCC      0x800201a ; stimer_task_dispatch + 366
        0x08002004:    e7ff        ..      B        0x8002006 ; stimer_task_dispatch + 346
        0x08002006:    9807        ..      LDR      r0,[sp,#0x1c]
        0x08002008:    6800        .h      LDR      r0,[r0,#0]
        0x0800200a:    4780        .G      BLX      r0
        0x0800200c:    9809        ..      LDR      r0,[sp,#0x24]
        0x0800200e:    f7fffe03    ....    BL       list_delete_item ; 0x8001c18
        0x08002012:    9807        ..      LDR      r0,[sp,#0x1c]
        0x08002014:    f7fffa44    ..D.    BL       defer_task_free ; 0x80014a0
        0x08002018:    e7ff        ..      B        0x800201a ; stimer_task_dispatch + 366
        0x0800201a:    e7ff        ..      B        0x800201c ; stimer_task_dispatch + 368
        0x0800201c:    9808        ..      LDR      r0,[sp,#0x20]
        0x0800201e:    9009        ..      STR      r0,[sp,#0x24]
        0x08002020:    9809        ..      LDR      r0,[sp,#0x24]
        0x08002022:    6840        @h      LDR      r0,[r0,#4]
        0x08002024:    9008        ..      STR      r0,[sp,#0x20]
        0x08002026:    e7d8        ..      B        0x8001fda ; stimer_task_dispatch + 302
        0x08002028:    b00c        ..      ADD      sp,sp,#0x30
        0x0800202a:    bd80        ..      POP      {r7,pc}
    $d.20
    __arm_cp.11_0
        0x0800202c:    20000778    x..     DCD    536872824
    $t.5
    system_clock_64m_hxtal
        0x08002030:    b510        ..      PUSH     {r4,lr}
        0x08002032:    b084        ..      SUB      sp,sp,#0x10
        0x08002034:    2000        .       MOVS     r0,#0
        0x08002036:    9003        ..      STR      r0,[sp,#0xc]
        0x08002038:    9002        ..      STR      r0,[sp,#8]
        0x0800203a:    4935        5I      LDR      r1,[pc,#212] ; [0x8002110] = 0x40021000
        0x0800203c:    6808        .h      LDR      r0,[r1,#0]
        0x0800203e:    2201        ."      MOVS     r2,#1
        0x08002040:    0412        ..      LSLS     r2,r2,#16
        0x08002042:    4310        .C      ORRS     r0,r0,r2
        0x08002044:    6008        .`      STR      r0,[r1,#0]
        0x08002046:    e7ff        ..      B        0x8002048 ; system_clock_64m_hxtal + 24
        0x08002048:    9803        ..      LDR      r0,[sp,#0xc]
        0x0800204a:    1c40        @.      ADDS     r0,r0,#1
        0x0800204c:    9003        ..      STR      r0,[sp,#0xc]
        0x0800204e:    4830        0H      LDR      r0,[pc,#192] ; [0x8002110] = 0x40021000
        0x08002050:    6800        .h      LDR      r0,[r0,#0]
        0x08002052:    2101        .!      MOVS     r1,#1
        0x08002054:    0449        I.      LSLS     r1,r1,#17
        0x08002056:    4008        .@      ANDS     r0,r0,r1
        0x08002058:    9002        ..      STR      r0,[sp,#8]
        0x0800205a:    e7ff        ..      B        0x800205c ; system_clock_64m_hxtal + 44
        0x0800205c:    9902        ..      LDR      r1,[sp,#8]
        0x0800205e:    2000        .       MOVS     r0,#0
        0x08002060:    9001        ..      STR      r0,[sp,#4]
        0x08002062:    b939        9.      CBNZ     r1,0x8002074 ; system_clock_64m_hxtal + 68
        0x08002064:    e7ff        ..      B        0x8002066 ; system_clock_64m_hxtal + 54
        0x08002066:    9803        ..      LDR      r0,[sp,#0xc]
        0x08002068:    492a        *I      LDR      r1,[pc,#168] ; [0x8002114] = 0xffff
        0x0800206a:    1a40        @.      SUBS     r0,r0,r1
        0x0800206c:    1e41        A.      SUBS     r1,r0,#1
        0x0800206e:    4188        .A      SBCS     r0,r0,r1
        0x08002070:    9001        ..      STR      r0,[sp,#4]
        0x08002072:    e7ff        ..      B        0x8002074 ; system_clock_64m_hxtal + 68
        0x08002074:    9801        ..      LDR      r0,[sp,#4]
        0x08002076:    07c0        ..      LSLS     r0,r0,#31
        0x08002078:    2800        .(      CMP      r0,#0
        0x0800207a:    d1e5        ..      BNE      0x8002048 ; system_clock_64m_hxtal + 24
        0x0800207c:    e7ff        ..      B        0x800207e ; system_clock_64m_hxtal + 78
        0x0800207e:    4824        $H      LDR      r0,[pc,#144] ; [0x8002110] = 0x40021000
        0x08002080:    6800        .h      LDR      r0,[r0,#0]
        0x08002082:    0380        ..      LSLS     r0,r0,#14
        0x08002084:    2800        .(      CMP      r0,#0
        0x08002086:    d402        ..      BMI      0x800208e ; system_clock_64m_hxtal + 94
        0x08002088:    e7ff        ..      B        0x800208a ; system_clock_64m_hxtal + 90
        0x0800208a:    e7ff        ..      B        0x800208c ; system_clock_64m_hxtal + 92
        0x0800208c:    e7fe        ..      B        0x800208c ; system_clock_64m_hxtal + 92
        0x0800208e:    4922        "I      LDR      r1,[pc,#136] ; [0x8002118] = 0x40022000
        0x08002090:    6808        .h      LDR      r0,[r1,#0]
        0x08002092:    2201        ."      MOVS     r2,#1
        0x08002094:    4310        .C      ORRS     r0,r0,r2
        0x08002096:    2306        .#      MOVS     r3,#6
        0x08002098:    4398        .C      BICS     r0,r0,r3
        0x0800209a:    6008        .`      STR      r0,[r1,#0]
        0x0800209c:    491f        .I      LDR      r1,[pc,#124] ; [0x800211c] = 0x40021004
        0x0800209e:    9100        ..      STR      r1,[sp,#0]
        0x080020a0:    6808        .h      LDR      r0,[r1,#0]
        0x080020a2:    6008        .`      STR      r0,[r1,#0]
        0x080020a4:    6808        .h      LDR      r0,[r1,#0]
        0x080020a6:    6008        .`      STR      r0,[r1,#0]
        0x080020a8:    6808        .h      LDR      r0,[r1,#0]
        0x080020aa:    f2404300    @..C    MOVW     r3,#0x400
        0x080020ae:    4318        .C      ORRS     r0,r0,r3
        0x080020b0:    6008        .`      STR      r0,[r1,#0]
        0x080020b2:    4b1b        .K      LDR      r3,[pc,#108] ; [0x8002120] = 0x4002102c
        0x080020b4:    6818        .h      LDR      r0,[r3,#0]
        0x080020b6:    240f        .$      MOVS     r4,#0xf
        0x080020b8:    43a0        .C      BICS     r0,r0,r4
        0x080020ba:    6018        .`      STR      r0,[r3,#0]
        0x080020bc:    6808        .h      LDR      r0,[r1,#0]
        0x080020be:    4b19        .K      LDR      r3,[pc,#100] ; [0x8002124] = 0x7f00ffff
        0x080020c0:    4018        .@      ANDS     r0,r0,r3
        0x080020c2:    6008        .`      STR      r0,[r1,#0]
        0x080020c4:    6808        .h      LDR      r0,[r1,#0]
        0x080020c6:    2309        .#      MOVS     r3,#9
        0x080020c8:    041b        ..      LSLS     r3,r3,#16
        0x080020ca:    4318        .C      ORRS     r0,r0,r3
        0x080020cc:    6008        .`      STR      r0,[r1,#0]
        0x080020ce:    4910        .I      LDR      r1,[pc,#64] ; [0x8002110] = 0x40021000
        0x080020d0:    6808        .h      LDR      r0,[r1,#0]
        0x080020d2:    0612        ..      LSLS     r2,r2,#24
        0x080020d4:    4310        .C      ORRS     r0,r0,r2
        0x080020d6:    6008        .`      STR      r0,[r1,#0]
        0x080020d8:    e7ff        ..      B        0x80020da ; system_clock_64m_hxtal + 170
        0x080020da:    480d        .H      LDR      r0,[pc,#52] ; [0x8002110] = 0x40021000
        0x080020dc:    6800        .h      LDR      r0,[r0,#0]
        0x080020de:    0180        ..      LSLS     r0,r0,#6
        0x080020e0:    2800        .(      CMP      r0,#0
        0x080020e2:    d401        ..      BMI      0x80020e8 ; system_clock_64m_hxtal + 184
        0x080020e4:    e7ff        ..      B        0x80020e6 ; system_clock_64m_hxtal + 182
        0x080020e6:    e7f8        ..      B        0x80020da ; system_clock_64m_hxtal + 170
        0x080020e8:    490c        .I      LDR      r1,[pc,#48] ; [0x800211c] = 0x40021004
        0x080020ea:    6808        .h      LDR      r0,[r1,#0]
        0x080020ec:    2203        ."      MOVS     r2,#3
        0x080020ee:    4390        .C      BICS     r0,r0,r2
        0x080020f0:    6008        .`      STR      r0,[r1,#0]
        0x080020f2:    6808        .h      LDR      r0,[r1,#0]
        0x080020f4:    2202        ."      MOVS     r2,#2
        0x080020f6:    4310        .C      ORRS     r0,r0,r2
        0x080020f8:    6008        .`      STR      r0,[r1,#0]
        0x080020fa:    e7ff        ..      B        0x80020fc ; system_clock_64m_hxtal + 204
        0x080020fc:    4807        .H      LDR      r0,[pc,#28] ; [0x800211c] = 0x40021004
        0x080020fe:    6800        .h      LDR      r0,[r0,#0]
        0x08002100:    210c        .!      MOVS     r1,#0xc
        0x08002102:    4008        .@      ANDS     r0,r0,r1
        0x08002104:    2808        .(      CMP      r0,#8
        0x08002106:    d001        ..      BEQ      0x800210c ; system_clock_64m_hxtal + 220
        0x08002108:    e7ff        ..      B        0x800210a ; system_clock_64m_hxtal + 218
        0x0800210a:    e7f7        ..      B        0x80020fc ; system_clock_64m_hxtal + 204
        0x0800210c:    b004        ..      ADD      sp,sp,#0x10
        0x0800210e:    bd10        ..      POP      {r4,pc}
    $d.6
    __arm_cp.3_0
        0x08002110:    40021000    ...@    DCD    1073876992
    __arm_cp.3_1
        0x08002114:    0000ffff    ....    DCD    65535
    __arm_cp.3_2
        0x08002118:    40022000    . .@    DCD    1073881088
    __arm_cp.3_3
        0x0800211c:    40021004    ...@    DCD    1073876996
    __arm_cp.3_4
        0x08002120:    4002102c    ,..@    DCD    1073877036
    __arm_cp.3_5
        0x08002124:    7f00ffff    ....    DCD    2130771967
    $t.2
    system_clock_config
        0x08002128:    b580        ..      PUSH     {r7,lr}
        0x0800212a:    f7ffff81    ....    BL       system_clock_64m_hxtal ; 0x8002030
        0x0800212e:    bd80        ..      POP      {r7,pc}
    task_dispatch_looper
        0x08002130:    b580        ..      PUSH     {r7,lr}
        0x08002132:    b082        ..      SUB      sp,sp,#8
        0x08002134:    480b        .H      LDR      r0,[pc,#44] ; [0x8002164] = 0x20000024
        0x08002136:    f7fffe9d    ....    BL       stimer_task_add ; 0x8001e74
        0x0800213a:    f7fffe89    ....    BL       stimer_start ; 0x8001e50
        0x0800213e:    e7ff        ..      B        0x8002140 ; task_dispatch_looper + 16
        0x08002140:    f7fffe14    ....    BL       stimer_get_tick ; 0x8001d6c
        0x08002144:    9001        ..      STR      r0,[sp,#4]
        0x08002146:    9801        ..      LDR      r0,[sp,#4]
        0x08002148:    4907        .I      LDR      r1,[pc,#28] ; [0x8002168] = 0x2000089c
        0x0800214a:    6809        .h      LDR      r1,[r1,#0]
        0x0800214c:    4288        .B      CMP      r0,r1
        0x0800214e:    d007        ..      BEQ      0x8002160 ; task_dispatch_looper + 48
        0x08002150:    e7ff        ..      B        0x8002152 ; task_dispatch_looper + 34
        0x08002152:    4905        .I      LDR      r1,[pc,#20] ; [0x8002168] = 0x2000089c
        0x08002154:    6808        .h      LDR      r0,[r1,#0]
        0x08002156:    1c40        @.      ADDS     r0,r0,#1
        0x08002158:    6008        .`      STR      r0,[r1,#0]
        0x0800215a:    f7fffea7    ....    BL       stimer_task_dispatch ; 0x8001eac
        0x0800215e:    e7ff        ..      B        0x8002160 ; task_dispatch_looper + 48
        0x08002160:    e7ee        ..      B        0x8002140 ; task_dispatch_looper + 16
        0x08002162:    46c0        .F      MOV      r8,r8
    $d.1
    __arm_cp.0_0
        0x08002164:    20000024    $..     DCD    536870948
    __arm_cp.0_1
        0x08002168:    2000089c    ...     DCD    536873116
    $t.0
    timer_deinit
        0x0800216c:    b580        ..      PUSH     {r7,lr}
        0x0800216e:    b088        ..      SUB      sp,sp,#0x20
        0x08002170:    9007        ..      STR      r0,[sp,#0x1c]
        0x08002172:    9807        ..      LDR      r0,[sp,#0x1c]
        0x08002174:    9006        ..      STR      r0,[sp,#0x18]
        0x08002176:    2101        .!      MOVS     r1,#1
        0x08002178:    0789        ..      LSLS     r1,r1,#30
        0x0800217a:    4288        .B      CMP      r0,r1
        0x0800217c:    d019        ..      BEQ      0x80021b2 ; timer_deinit + 70
        0x0800217e:    e7ff        ..      B        0x8002180 ; timer_deinit + 20
        0x08002180:    9806        ..      LDR      r0,[sp,#0x18]
        0x08002182:    4957        WI      LDR      r1,[pc,#348] ; [0x80022e0] = 0x40000400
        0x08002184:    4288        .B      CMP      r0,r1
        0x08002186:    d01d        ..      BEQ      0x80021c4 ; timer_deinit + 88
        0x08002188:    e7ff        ..      B        0x800218a ; timer_deinit + 30
        0x0800218a:    9806        ..      LDR      r0,[sp,#0x18]
        0x0800218c:    4955        UI      LDR      r1,[pc,#340] ; [0x80022e4] = 0x40001000
        0x0800218e:    4288        .B      CMP      r0,r1
        0x08002190:    d020         .      BEQ      0x80021d4 ; timer_deinit + 104
        0x08002192:    e7ff        ..      B        0x8002194 ; timer_deinit + 40
        0x08002194:    9806        ..      LDR      r0,[sp,#0x18]
        0x08002196:    4921        !I      LDR      r1,[pc,#132] ; [0x800221c] = 0x40001400
        0x08002198:    4288        .B      CMP      r0,r1
        0x0800219a:    d023        #.      BEQ      0x80021e4 ; timer_deinit + 120
        0x0800219c:    e7ff        ..      B        0x800219e ; timer_deinit + 50
        0x0800219e:    9806        ..      LDR      r0,[sp,#0x18]
        0x080021a0:    491f        .I      LDR      r1,[pc,#124] ; [0x8002220] = 0x40001800
        0x080021a2:    4288        .B      CMP      r0,r1
        0x080021a4:    d02e        ..      BEQ      0x8002204 ; timer_deinit + 152
        0x080021a6:    e7ff        ..      B        0x80021a8 ; timer_deinit + 60
        0x080021a8:    9806        ..      LDR      r0,[sp,#0x18]
        0x080021aa:    491e        .I      LDR      r1,[pc,#120] ; [0x8002224] = 0x40014c00
        0x080021ac:    4288        .B      CMP      r0,r1
        0x080021ae:    d021        !.      BEQ      0x80021f4 ; timer_deinit + 136
        0x080021b0:    e031        1.      B        0x8002216 ; timer_deinit + 170
        0x080021b2:    f2404000    @..@    MOVW     r0,#0x400
        0x080021b6:    9005        ..      STR      r0,[sp,#0x14]
        0x080021b8:    f7fffdc6    ....    BL       rcu_periph_reset_enable ; 0x8001d48
        0x080021bc:    9805        ..      LDR      r0,[sp,#0x14]
        0x080021be:    f7fffdb3    ....    BL       rcu_periph_reset_disable ; 0x8001d28
        0x080021c2:    e029        ).      B        0x8002218 ; timer_deinit + 172
        0x080021c4:    481b        .H      LDR      r0,[pc,#108] ; [0x8002234] = 0x401
        0x080021c6:    9004        ..      STR      r0,[sp,#0x10]
        0x080021c8:    f7fffdbe    ....    BL       rcu_periph_reset_enable ; 0x8001d48
        0x080021cc:    9804        ..      LDR      r0,[sp,#0x10]
        0x080021ce:    f7fffdab    ....    BL       rcu_periph_reset_disable ; 0x8001d28
        0x080021d2:    e021        !.      B        0x8002218 ; timer_deinit + 172
        0x080021d4:    4816        .H      LDR      r0,[pc,#88] ; [0x8002230] = 0x404
        0x080021d6:    9003        ..      STR      r0,[sp,#0xc]
        0x080021d8:    f7fffdb6    ....    BL       rcu_periph_reset_enable ; 0x8001d48
        0x080021dc:    9803        ..      LDR      r0,[sp,#0xc]
        0x080021de:    f7fffda3    ....    BL       rcu_periph_reset_disable ; 0x8001d28
        0x080021e2:    e019        ..      B        0x8002218 ; timer_deinit + 172
        0x080021e4:    4811        .H      LDR      r0,[pc,#68] ; [0x800222c] = 0x405
        0x080021e6:    9002        ..      STR      r0,[sp,#8]
        0x080021e8:    f7fffdae    ....    BL       rcu_periph_reset_enable ; 0x8001d48
        0x080021ec:    9802        ..      LDR      r0,[sp,#8]
        0x080021ee:    f7fffd9b    ....    BL       rcu_periph_reset_disable ; 0x8001d28
        0x080021f2:    e011        ..      B        0x8002218 ; timer_deinit + 172
        0x080021f4:    480c        .H      LDR      r0,[pc,#48] ; [0x8002228] = 0x30b
        0x080021f6:    9001        ..      STR      r0,[sp,#4]
        0x080021f8:    f7fffda6    ....    BL       rcu_periph_reset_enable ; 0x8001d48
        0x080021fc:    9801        ..      LDR      r0,[sp,#4]
        0x080021fe:    f7fffd93    ....    BL       rcu_periph_reset_disable ; 0x8001d28
        0x08002202:    e009        ..      B        0x8002218 ; timer_deinit + 172
        0x08002204:    f2404008    @..@    MOVW     r0,#0x408
        0x08002208:    9000        ..      STR      r0,[sp,#0]
        0x0800220a:    f7fffd9d    ....    BL       rcu_periph_reset_enable ; 0x8001d48
        0x0800220e:    9800        ..      LDR      r0,[sp,#0]
        0x08002210:    f7fffd8a    ....    BL       rcu_periph_reset_disable ; 0x8001d28
        0x08002214:    e000        ..      B        0x8002218 ; timer_deinit + 172
        0x08002216:    e7ff        ..      B        0x8002218 ; timer_deinit + 172
        0x08002218:    b008        ..      ADD      sp,sp,#0x20
        0x0800221a:    bd80        ..      POP      {r7,pc}
    $d.1
    __arm_cp.0_2
        0x0800221c:    40001400    ...@    DCD    1073746944
    __arm_cp.0_3
        0x08002220:    40001800    ...@    DCD    1073747968
    __arm_cp.0_4
        0x08002224:    40014c00    .L.@    DCD    1073826816
    __arm_cp.0_5
        0x08002228:    0000030b    ....    DCD    779
    __arm_cp.0_6
        0x0800222c:    00000405    ....    DCD    1029
    __arm_cp.0_7
        0x08002230:    00000404    ....    DCD    1028
    __arm_cp.0_8
        0x08002234:    00000401    ....    DCD    1025
    $t.6
    timer_enable
        0x08002238:    b081        ..      SUB      sp,sp,#4
        0x0800223a:    9000        ..      STR      r0,[sp,#0]
        0x0800223c:    9900        ..      LDR      r1,[sp,#0]
        0x0800223e:    6808        .h      LDR      r0,[r1,#0]
        0x08002240:    2201        ."      MOVS     r2,#1
        0x08002242:    4310        .C      ORRS     r0,r0,r2
        0x08002244:    6008        .`      STR      r0,[r1,#0]
        0x08002246:    b001        ..      ADD      sp,sp,#4
        0x08002248:    4770        pG      BX       lr
    timer_flag_clear
        0x0800224a:    b082        ..      SUB      sp,sp,#8
        0x0800224c:    9001        ..      STR      r0,[sp,#4]
        0x0800224e:    9100        ..      STR      r1,[sp,#0]
        0x08002250:    9800        ..      LDR      r0,[sp,#0]
        0x08002252:    43c0        .C      MVNS     r0,r0
        0x08002254:    9901        ..      LDR      r1,[sp,#4]
        0x08002256:    6108        .a      STR      r0,[r1,#0x10]
        0x08002258:    b002        ..      ADD      sp,sp,#8
        0x0800225a:    4770        pG      BX       lr
    timer_init
        0x0800225c:    b082        ..      SUB      sp,sp,#8
        0x0800225e:    9001        ..      STR      r0,[sp,#4]
        0x08002260:    9100        ..      STR      r1,[sp,#0]
        0x08002262:    9800        ..      LDR      r0,[sp,#0]
        0x08002264:    8800        ..      LDRH     r0,[r0,#0]
        0x08002266:    9901        ..      LDR      r1,[sp,#4]
        0x08002268:    6288        .b      STR      r0,[r1,#0x28]
        0x0800226a:    9801        ..      LDR      r0,[sp,#4]
        0x0800226c:    2101        .!      MOVS     r1,#1
        0x0800226e:    0789        ..      LSLS     r1,r1,#30
        0x08002270:    4288        .B      CMP      r0,r1
        0x08002272:    d005        ..      BEQ      0x8002280 ; timer_init + 36
        0x08002274:    e7ff        ..      B        0x8002276 ; timer_init + 26
        0x08002276:    9801        ..      LDR      r0,[sp,#4]
        0x08002278:    4919        .I      LDR      r1,[pc,#100] ; [0x80022e0] = 0x40000400
        0x0800227a:    4288        .B      CMP      r0,r1
        0x0800227c:    d112        ..      BNE      0x80022a4 ; timer_init + 72
        0x0800227e:    e7ff        ..      B        0x8002280 ; timer_init + 36
        0x08002280:    9901        ..      LDR      r1,[sp,#4]
        0x08002282:    6808        .h      LDR      r0,[r1,#0]
        0x08002284:    2270        p"      MOVS     r2,#0x70
        0x08002286:    4390        .C      BICS     r0,r0,r2
        0x08002288:    6008        .`      STR      r0,[r1,#0]
        0x0800228a:    9800        ..      LDR      r0,[sp,#0]
        0x0800228c:    8842        B.      LDRH     r2,[r0,#2]
        0x0800228e:    9901        ..      LDR      r1,[sp,#4]
        0x08002290:    6808        .h      LDR      r0,[r1,#0]
        0x08002292:    4310        .C      ORRS     r0,r0,r2
        0x08002294:    6008        .`      STR      r0,[r1,#0]
        0x08002296:    9800        ..      LDR      r0,[sp,#0]
        0x08002298:    8882        ..      LDRH     r2,[r0,#4]
        0x0800229a:    9901        ..      LDR      r1,[sp,#4]
        0x0800229c:    6808        .h      LDR      r0,[r1,#0]
        0x0800229e:    4310        .C      ORRS     r0,r0,r2
        0x080022a0:    6008        .`      STR      r0,[r1,#0]
        0x080022a2:    e7ff        ..      B        0x80022a4 ; timer_init + 72
        0x080022a4:    9800        ..      LDR      r0,[sp,#0]
        0x080022a6:    6880        .h      LDR      r0,[r0,#8]
        0x080022a8:    9901        ..      LDR      r1,[sp,#4]
        0x080022aa:    62c8        .b      STR      r0,[r1,#0x2c]
        0x080022ac:    9801        ..      LDR      r0,[sp,#4]
        0x080022ae:    490d        .I      LDR      r1,[pc,#52] ; [0x80022e4] = 0x40001000
        0x080022b0:    4288        .B      CMP      r0,r1
        0x080022b2:    d00d        ..      BEQ      0x80022d0 ; timer_init + 116
        0x080022b4:    e7ff        ..      B        0x80022b6 ; timer_init + 90
        0x080022b6:    9901        ..      LDR      r1,[sp,#4]
        0x080022b8:    6808        .h      LDR      r0,[r1,#0]
        0x080022ba:    f2403200    @..2    MOVW     r2,#0x300
        0x080022be:    4390        .C      BICS     r0,r0,r2
        0x080022c0:    6008        .`      STR      r0,[r1,#0]
        0x080022c2:    9800        ..      LDR      r0,[sp,#0]
        0x080022c4:    8982        ..      LDRH     r2,[r0,#0xc]
        0x080022c6:    9901        ..      LDR      r1,[sp,#4]
        0x080022c8:    6808        .h      LDR      r0,[r1,#0]
        0x080022ca:    4310        .C      ORRS     r0,r0,r2
        0x080022cc:    6008        .`      STR      r0,[r1,#0]
        0x080022ce:    e7ff        ..      B        0x80022d0 ; timer_init + 116
        0x080022d0:    9901        ..      LDR      r1,[sp,#4]
        0x080022d2:    6948        Hi      LDR      r0,[r1,#0x14]
        0x080022d4:    2201        ."      MOVS     r2,#1
        0x080022d6:    4310        .C      ORRS     r0,r0,r2
        0x080022d8:    6148        Ha      STR      r0,[r1,#0x14]
        0x080022da:    b002        ..      ADD      sp,sp,#8
        0x080022dc:    4770        pG      BX       lr
        0x080022de:    46c0        .F      MOV      r8,r8
    $d.5
    __arm_cp.2_0
        0x080022e0:    40000400    ...@    DCD    1073742848
    __arm_cp.2_1
        0x080022e4:    40001000    ...@    DCD    1073745920
    $t.59
    timer_interrupt_enable
        0x080022e8:    b082        ..      SUB      sp,sp,#8
        0x080022ea:    9001        ..      STR      r0,[sp,#4]
        0x080022ec:    9100        ..      STR      r1,[sp,#0]
        0x080022ee:    9a00        ..      LDR      r2,[sp,#0]
        0x080022f0:    9901        ..      LDR      r1,[sp,#4]
        0x080022f2:    68c8        .h      LDR      r0,[r1,#0xc]
        0x080022f4:    4310        .C      ORRS     r0,r0,r2
        0x080022f6:    60c8        .`      STR      r0,[r1,#0xc]
        0x080022f8:    b002        ..      ADD      sp,sp,#8
        0x080022fa:    4770        pG      BX       lr
    timer_interrupt_flag_clear
        0x080022fc:    b082        ..      SUB      sp,sp,#8
        0x080022fe:    9001        ..      STR      r0,[sp,#4]
        0x08002300:    9100        ..      STR      r1,[sp,#0]
        0x08002302:    9800        ..      LDR      r0,[sp,#0]
        0x08002304:    43c0        .C      MVNS     r0,r0
        0x08002306:    9901        ..      LDR      r1,[sp,#4]
        0x08002308:    6108        .a      STR      r0,[r1,#0x10]
        0x0800230a:    b002        ..      ADD      sp,sp,#8
        0x0800230c:    4770        pG      BX       lr
    timer_interrupt_flag_get
        0x0800230e:    b084        ..      SUB      sp,sp,#0x10
        0x08002310:    9002        ..      STR      r0,[sp,#8]
        0x08002312:    9101        ..      STR      r1,[sp,#4]
        0x08002314:    9802        ..      LDR      r0,[sp,#8]
        0x08002316:    68c0        .h      LDR      r0,[r0,#0xc]
        0x08002318:    9901        ..      LDR      r1,[sp,#4]
        0x0800231a:    4008        .@      ANDS     r0,r0,r1
        0x0800231c:    9000        ..      STR      r0,[sp,#0]
        0x0800231e:    9802        ..      LDR      r0,[sp,#8]
        0x08002320:    6900        .i      LDR      r0,[r0,#0x10]
        0x08002322:    9901        ..      LDR      r1,[sp,#4]
        0x08002324:    4208        .B      TST      r0,r1
        0x08002326:    d006        ..      BEQ      0x8002336 ; timer_interrupt_flag_get + 40
        0x08002328:    e7ff        ..      B        0x800232a ; timer_interrupt_flag_get + 28
        0x0800232a:    9800        ..      LDR      r0,[sp,#0]
        0x0800232c:    b118        ..      CBZ      r0,0x8002336 ; timer_interrupt_flag_get + 40
        0x0800232e:    e7ff        ..      B        0x8002330 ; timer_interrupt_flag_get + 34
        0x08002330:    2001        .       MOVS     r0,#1
        0x08002332:    9003        ..      STR      r0,[sp,#0xc]
        0x08002334:    e002        ..      B        0x800233c ; timer_interrupt_flag_get + 46
        0x08002336:    2000        .       MOVS     r0,#0
        0x08002338:    9003        ..      STR      r0,[sp,#0xc]
        0x0800233a:    e7ff        ..      B        0x800233c ; timer_interrupt_flag_get + 46
        0x0800233c:    9803        ..      LDR      r0,[sp,#0xc]
        0x0800233e:    b004        ..      ADD      sp,sp,#0x10
        0x08002340:    4770        pG      BX       lr
    $d.realdata
    _DoInit._aInitStr
        0x08002342:    0000        ..      DCW    0
        0x08002344:    00000000    ....    DCD    0
        0x08002348:    20525454    TTR     DCD    542266452
        0x0800234c:    47474552    REGG    DCD    1195853138
        0x08002350:    5345        ES      DCW    21317
        0x08002352:    00          .       DCB    0
    _PrintUnsigned._aV2C
        0x08002353:    30          0       DCB    48
        0x08002354:    34333231    1234    DCD    875770417
        0x08002358:    38373635    5678    DCD    943142453
        0x0800235c:    43424139    9ABC    DCD    1128415545
        0x08002360:    4544        DE      DCW    17732
        0x08002362:    46          F       DCB    70
    led_name
        0x08002363:    4c          L       DCB    76
        0x08002364:    525f4445    ED_R    DCD    1381975109
        0x08002368:    54004445    ED.T    DCD    1409303621
        0x0800236c:    696d7265    ermi    DCD    1768780389
        0x08002370:    006c616e    nal.    DCD    7102830
        0x08002374:    4c554e28    (NUL    DCD    1280658984
        0x08002378:    6800294c    L).h    DCD    1744841036
        0x0800237c:    6f6c6c65    ello    DCD    1869376613
        0x08002380:    726f7720     wor    DCD    1919907616
        0x08002384:    200a646c    ld.     DCD    537551980
        0x08002388:    5b202d2d    -- [    DCD    1528835373
        0x0800238c:    656c6946    File    DCD    1701603654
        0x08002390:    7325203a    : %s    DCD    1931812922
        0x08002394:    694c202c    , Li    DCD    1766596652
        0x08002398:    203a656e    ne:     DCD    540697966
        0x0800239c:    0a5d6425    %d].    DCD    173892645
        0x080023a0:    2f3a4400    .D:/    DCD    792347648
        0x080023a4:    68746967    gith    DCD    1752459623
        0x080023a8:    562f6275    ub/V    DCD    1445945973
        0x080023ac:    75747269    irtu    DCD    1970565737
        0x080023b0:    534f6c61    alOS    DCD    1397714017
        0x080023b4:    4c4d442f    /DML    DCD    1280132143
        0x080023b8:    6c6d642f    /dml    DCD    1819108399
        0x080023bc:    696e695f    _ini    DCD    1768843615
        0x080023c0:    00632e74    t.c.    DCD    6499956
        0x080023c4:    5f44454c    LED_    DCD    1598309708
        0x080023c8:    00444552    RED.    DCD    4474194
    Region$$Table$$Base
        0x080023cc:    080023f0    .#..    DCD    134226928
        0x080023d0:    20000000    ...     DCD    536870912
        0x080023d4:    00000048    H...    DCD    72
        0x080023d8:    080001b0    ....    DCD    134218160
        0x080023dc:    08002438    8$..    DCD    134227000
        0x080023e0:    20000048    H..     DCD    536870984
        0x080023e4:    00001058    X...    DCD    4184
        0x080023e8:    080001d0    ....    DCD    134218192
    Region$$Table$$Limit
    SHT$$INIT_ARRAY$$Base
        0x080023ec:    fffff161    a...    DCD    4294963553
    .init_array
    SHT$$INIT_ARRAY$$Limit

** Section #2 'RW_IRAM1' (SHT_PROGBITS) [SHF_ALLOC + SHF_WRITE]
    Size   : 72 bytes (alignment 8)
    Address: 0x20000000


** Section #3 'RW_IRAM1' (SHT_NOBITS) [SHF_ALLOC + SHF_WRITE]
    Size   : 4184 bytes (alignment 8)
    Address: 0x20000048


** Section #4 '.debug_abbrev' (SHT_PROGBITS)
    Size   : 4678 bytes


** Section #5 '.debug_frame' (SHT_PROGBITS)
    Size   : 7048 bytes


** Section #6 '.debug_info' (SHT_PROGBITS)
    Size   : 25716 bytes


** Section #7 '.debug_line' (SHT_PROGBITS)
    Size   : 30111 bytes


** Section #8 '.debug_ranges' (SHT_PROGBITS)
    Size   : 2136 bytes


** Section #9 '.debug_str' (SHT_PROGBITS)
    Size   : 20793 bytes


** Section #10 '.symtab' (SHT_SYMTAB)
    Size   : 11888 bytes (alignment 4)
    String table #11 '.strtab'
    Last local symbol no. 512


** Section #11 '.strtab' (SHT_STRTAB)
    Size   : 8720 bytes


** Section #12 '.note' (SHT_NOTE)
    Size   : 28 bytes (alignment 4)


** Section #13 '.comment' (SHT_PROGBITS)
    Size   : 1908 bytes


** Section #14 '.shstrtab' (SHT_STRTAB)
    Size   : 136 bytes


